	.file	"ch5-dot-metaprogram.cpp"
	.text
	.section .rdata,"dr"
_ZStL19piecewise_construct:
	.space 1
	.section	.text$_ZStanSt13_Ios_FmtflagsS_,"x"
	.linkonce discard
	.globl	_ZStanSt13_Ios_FmtflagsS_
	.def	_ZStanSt13_Ios_FmtflagsS_;	.scl	2;	.type	32;	.endef
	.seh_proc	_ZStanSt13_Ios_FmtflagsS_
_ZStanSt13_Ios_FmtflagsS_:
.LFB1165:
	pushq	%rbp
	.seh_pushreg	%rbp
	movq	%rsp, %rbp
	.seh_setframe	%rbp, 0
	.seh_endprologue
	movl	%ecx, 16(%rbp)
	movl	%edx, 24(%rbp)
	movl	16(%rbp), %eax
	andl	24(%rbp), %eax
	popq	%rbp
	ret
	.seh_endproc
	.section	.text$_ZStorSt13_Ios_FmtflagsS_,"x"
	.linkonce discard
	.globl	_ZStorSt13_Ios_FmtflagsS_
	.def	_ZStorSt13_Ios_FmtflagsS_;	.scl	2;	.type	32;	.endef
	.seh_proc	_ZStorSt13_Ios_FmtflagsS_
_ZStorSt13_Ios_FmtflagsS_:
.LFB1166:
	pushq	%rbp
	.seh_pushreg	%rbp
	movq	%rsp, %rbp
	.seh_setframe	%rbp, 0
	.seh_endprologue
	movl	%ecx, 16(%rbp)
	movl	%edx, 24(%rbp)
	movl	16(%rbp), %eax
	orl	24(%rbp), %eax
	popq	%rbp
	ret
	.seh_endproc
	.section	.text$_ZStcoSt13_Ios_Fmtflags,"x"
	.linkonce discard
	.globl	_ZStcoSt13_Ios_Fmtflags
	.def	_ZStcoSt13_Ios_Fmtflags;	.scl	2;	.type	32;	.endef
	.seh_proc	_ZStcoSt13_Ios_Fmtflags
_ZStcoSt13_Ios_Fmtflags:
.LFB1168:
	pushq	%rbp
	.seh_pushreg	%rbp
	movq	%rsp, %rbp
	.seh_setframe	%rbp, 0
	.seh_endprologue
	movl	%ecx, 16(%rbp)
	movl	16(%rbp), %eax
	notl	%eax
	popq	%rbp
	ret
	.seh_endproc
	.section	.text$_ZStoRRSt13_Ios_FmtflagsS_,"x"
	.linkonce discard
	.globl	_ZStoRRSt13_Ios_FmtflagsS_
	.def	_ZStoRRSt13_Ios_FmtflagsS_;	.scl	2;	.type	32;	.endef
	.seh_proc	_ZStoRRSt13_Ios_FmtflagsS_
_ZStoRRSt13_Ios_FmtflagsS_:
.LFB1169:
	pushq	%rbp
	.seh_pushreg	%rbp
	movq	%rsp, %rbp
	.seh_setframe	%rbp, 0
	subq	$32, %rsp
	.seh_stackalloc	32
	.seh_endprologue
	movq	%rcx, 16(%rbp)
	movl	%edx, 24(%rbp)
	movq	16(%rbp), %rax
	movl	(%rax), %eax
	movl	24(%rbp), %edx
	movl	%eax, %ecx
	call	_ZStorSt13_Ios_FmtflagsS_
	movl	%eax, %edx
	movq	16(%rbp), %rax
	movl	%edx, (%rax)
	movq	16(%rbp), %rax
	addq	$32, %rsp
	popq	%rbp
	ret
	.seh_endproc
	.section	.text$_ZStaNRSt13_Ios_FmtflagsS_,"x"
	.linkonce discard
	.globl	_ZStaNRSt13_Ios_FmtflagsS_
	.def	_ZStaNRSt13_Ios_FmtflagsS_;	.scl	2;	.type	32;	.endef
	.seh_proc	_ZStaNRSt13_Ios_FmtflagsS_
_ZStaNRSt13_Ios_FmtflagsS_:
.LFB1170:
	pushq	%rbp
	.seh_pushreg	%rbp
	movq	%rsp, %rbp
	.seh_setframe	%rbp, 0
	subq	$32, %rsp
	.seh_stackalloc	32
	.seh_endprologue
	movq	%rcx, 16(%rbp)
	movl	%edx, 24(%rbp)
	movq	16(%rbp), %rax
	movl	(%rax), %eax
	movl	24(%rbp), %edx
	movl	%eax, %ecx
	call	_ZStanSt13_Ios_FmtflagsS_
	movl	%eax, %edx
	movq	16(%rbp), %rax
	movl	%edx, (%rax)
	movq	16(%rbp), %rax
	addq	$32, %rsp
	popq	%rbp
	ret
	.seh_endproc
	.section	.text$_ZNSt8ios_base4setfESt13_Ios_FmtflagsS0_,"x"
	.linkonce discard
	.align 2
	.globl	_ZNSt8ios_base4setfESt13_Ios_FmtflagsS0_
	.def	_ZNSt8ios_base4setfESt13_Ios_FmtflagsS0_;	.scl	2;	.type	32;	.endef
	.seh_proc	_ZNSt8ios_base4setfESt13_Ios_FmtflagsS0_
_ZNSt8ios_base4setfESt13_Ios_FmtflagsS0_:
.LFB1199:
	pushq	%rbp
	.seh_pushreg	%rbp
	movq	%rsp, %rbp
	.seh_setframe	%rbp, 0
	subq	$48, %rsp
	.seh_stackalloc	48
	.seh_endprologue
	movq	%rcx, 16(%rbp)
	movl	%edx, 24(%rbp)
	movl	%r8d, 32(%rbp)
	movq	16(%rbp), %rax
	movl	24(%rax), %eax
	movl	%eax, -4(%rbp)
	movl	32(%rbp), %eax
	movl	%eax, %ecx
	call	_ZStcoSt13_Ios_Fmtflags
	movl	%eax, %edx
	movq	16(%rbp), %rax
	addq	$24, %rax
	movq	%rax, %rcx
	call	_ZStaNRSt13_Ios_FmtflagsS_
	movl	32(%rbp), %edx
	movl	24(%rbp), %eax
	movl	%eax, %ecx
	call	_ZStanSt13_Ios_FmtflagsS_
	movl	%eax, %edx
	movq	16(%rbp), %rax
	addq	$24, %rax
	movq	%rax, %rcx
	call	_ZStoRRSt13_Ios_FmtflagsS_
	movl	-4(%rbp), %eax
	addq	$48, %rsp
	popq	%rbp
	ret
	.seh_endproc
	.section	.text$_ZSt5fixedRSt8ios_base,"x"
	.linkonce discard
	.globl	_ZSt5fixedRSt8ios_base
	.def	_ZSt5fixedRSt8ios_base;	.scl	2;	.type	32;	.endef
	.seh_proc	_ZSt5fixedRSt8ios_base
_ZSt5fixedRSt8ios_base:
.LFB1229:
	pushq	%rbp
	.seh_pushreg	%rbp
	movq	%rsp, %rbp
	.seh_setframe	%rbp, 0
	subq	$32, %rsp
	.seh_stackalloc	32
	.seh_endprologue
	movq	%rcx, 16(%rbp)
	movl	$260, %r8d
	movl	$4, %edx
	movq	16(%rbp), %rcx
	call	_ZNSt8ios_base4setfESt13_Ios_FmtflagsS0_
	movq	16(%rbp), %rax
	addq	$32, %rsp
	popq	%rbp
	ret
	.seh_endproc
.lcomm _ZStL8__ioinit,1,1
	.section .rdata,"dr"
_ZStL13allocator_arg:
	.space 1
_ZStL6ignore:
	.space 1
	.section	.text$_ZSt12setprecisioni,"x"
	.linkonce discard
	.globl	_ZSt12setprecisioni
	.def	_ZSt12setprecisioni;	.scl	2;	.type	32;	.endef
	.seh_proc	_ZSt12setprecisioni
_ZSt12setprecisioni:
.LFB2150:
	pushq	%rbp
	.seh_pushreg	%rbp
	movq	%rsp, %rbp
	.seh_setframe	%rbp, 0
	.seh_endprologue
	movl	%ecx, 16(%rbp)
	movl	16(%rbp), %eax
	popq	%rbp
	ret
	.seh_endproc
	.section	.text$_ZNKSt6chrono8durationIxSt5ratioILx1ELx1000000000EEE5countEv,"x"
	.linkonce discard
	.align 2
	.globl	_ZNKSt6chrono8durationIxSt5ratioILx1ELx1000000000EEE5countEv
	.def	_ZNKSt6chrono8durationIxSt5ratioILx1ELx1000000000EEE5countEv;	.scl	2;	.type	32;	.endef
	.seh_proc	_ZNKSt6chrono8durationIxSt5ratioILx1ELx1000000000EEE5countEv
_ZNKSt6chrono8durationIxSt5ratioILx1ELx1000000000EEE5countEv:
.LFB2760:
	pushq	%rbp
	.seh_pushreg	%rbp
	movq	%rsp, %rbp
	.seh_setframe	%rbp, 0
	.seh_endprologue
	movq	%rcx, 16(%rbp)
	movq	16(%rbp), %rax
	movq	(%rax), %rax
	popq	%rbp
	ret
	.seh_endproc
	.section	.text$_ZNSt6chrono8durationIxSt5ratioILx1ELx1000000000EEEC1IxvEERKT_,"x"
	.linkonce discard
	.align 2
	.globl	_ZNSt6chrono8durationIxSt5ratioILx1ELx1000000000EEEC1IxvEERKT_
	.def	_ZNSt6chrono8durationIxSt5ratioILx1ELx1000000000EEEC1IxvEERKT_;	.scl	2;	.type	32;	.endef
	.seh_proc	_ZNSt6chrono8durationIxSt5ratioILx1ELx1000000000EEEC1IxvEERKT_
_ZNSt6chrono8durationIxSt5ratioILx1ELx1000000000EEEC1IxvEERKT_:
.LFB2764:
	pushq	%rbp
	.seh_pushreg	%rbp
	movq	%rsp, %rbp
	.seh_setframe	%rbp, 0
	.seh_endprologue
	movq	%rcx, 16(%rbp)
	movq	%rdx, 24(%rbp)
	movq	24(%rbp), %rax
	movq	(%rax), %rdx
	movq	16(%rbp), %rax
	movq	%rdx, (%rax)
	nop
	popq	%rbp
	ret
	.seh_endproc
	.globl	a
	.bss
	.align 16
a:
	.space 24
	.globl	b
	.align 16
b:
	.space 24
	.section .rdata,"dr"
.LC0:
	.ascii "======== \0"
.LC1:
	.ascii " ========\12\0"
.LC2:
	.ascii "dot():      \0"
.LC3:
	.ascii "ms\12\0"
.LC4:
	.ascii "dot_re():   \0"
.LC5:
	.ascii "dot_meta(): \0"
	.align 8
.LC6:
	.ascii "(sum1 % 100, sum2 % 100, sum3 % 100)= (\0"
.LC7:
	.ascii ", \0"
.LC8:
	.ascii ")\12\0"
	.text
	.globl	_Z9benchmarki
	.def	_Z9benchmarki;	.scl	2;	.type	32;	.endef
	.seh_proc	_Z9benchmarki
_Z9benchmarki:
.LFB2788:
	pushq	%rbp
	.seh_pushreg	%rbp
	pushq	%rbx
	.seh_pushreg	%rbx
	subq	$168, %rsp
	.seh_stackalloc	168
	leaq	128(%rsp), %rbp
	.seh_setframe	%rbp, 128
	.seh_endprologue
	movl	%ecx, 64(%rbp)
	movl	$0, 28(%rbp)
	movl	$0, 24(%rbp)
	movl	$0, 20(%rbp)
	call	_ZNSt6chrono3_V212system_clock3nowEv
	movq	%rax, -72(%rbp)
	movl	$0, 16(%rbp)
.L24:
	movl	16(%rbp), %eax
	cmpl	64(%rbp), %eax
	jge	.L21
	movl	$0, 12(%rbp)
.L23:
	movl	12(%rbp), %eax
	cmpl	64(%rbp), %eax
	jge	.L22
	leaq	b(%rip), %rcx
	call	_ZNSt6vectorIiSaIiEE4dataEv
	movq	%rax, %rbx
	leaq	a(%rip), %rcx
	call	_ZNSt6vectorIiSaIiEE4dataEv
	movq	%rbx, %r8
	movq	%rax, %rdx
	movl	$4, %ecx
	call	_Z3dotIiET_iPS0_S1_
	movl	%eax, -8(%rbp)
	leaq	a(%rip), %rcx
	call	_ZNSt6vectorIiSaIiEE4dataEv
	movq	%rax, %rbx
	leaq	a(%rip), %rcx
	call	_ZNSt6vectorIiSaIiEE4dataEv
	movq	%rbx, %r8
	movq	%rax, %rdx
	movl	$4, %ecx
	call	_Z3dotIiET_iPS0_S1_
	imull	-8(%rbp), %eax
	addl	%eax, 28(%rbp)
	addl	$1, 12(%rbp)
	jmp	.L23
.L22:
	addl	$1, 16(%rbp)
	jmp	.L24
.L21:
	call	_ZNSt6chrono3_V212system_clock3nowEv
	movq	%rax, -80(%rbp)
	movl	$0, 8(%rbp)
.L28:
	movl	8(%rbp), %eax
	cmpl	64(%rbp), %eax
	jge	.L25
	movl	$0, 4(%rbp)
.L27:
	movl	4(%rbp), %eax
	cmpl	64(%rbp), %eax
	jge	.L26
	leaq	b(%rip), %rcx
	call	_ZNSt6vectorIiSaIiEE4dataEv
	movq	%rax, %rbx
	leaq	a(%rip), %rcx
	call	_ZNSt6vectorIiSaIiEE4dataEv
	movq	%rbx, %r8
	movq	%rax, %rdx
	movl	$4, %ecx
	call	_Z6dot_reIiET_iPS0_S1_
	movl	%eax, -12(%rbp)
	leaq	a(%rip), %rcx
	call	_ZNSt6vectorIiSaIiEE4dataEv
	movq	%rax, %rbx
	leaq	a(%rip), %rcx
	call	_ZNSt6vectorIiSaIiEE4dataEv
	movq	%rbx, %r8
	movq	%rax, %rdx
	movl	$4, %ecx
	call	_Z6dot_reIiET_iPS0_S1_
	imull	-12(%rbp), %eax
	addl	%eax, 24(%rbp)
	addl	$1, 4(%rbp)
	jmp	.L27
.L26:
	addl	$1, 8(%rbp)
	jmp	.L28
.L25:
	call	_ZNSt6chrono3_V212system_clock3nowEv
	movq	%rax, -88(%rbp)
	movl	$0, 0(%rbp)
.L32:
	movl	0(%rbp), %eax
	cmpl	64(%rbp), %eax
	jge	.L29
	movl	$0, -4(%rbp)
.L31:
	movl	-4(%rbp), %eax
	cmpl	64(%rbp), %eax
	jge	.L30
	leaq	b(%rip), %rcx
	call	_ZNSt6vectorIiSaIiEE4dataEv
	movq	%rax, %rbx
	leaq	a(%rip), %rcx
	call	_ZNSt6vectorIiSaIiEE4dataEv
	movq	%rbx, %rdx
	movq	%rax, %rcx
	call	_Z8dot_metaILi4EiET0_PS0_S1_
	movl	%eax, -16(%rbp)
	leaq	a(%rip), %rcx
	call	_ZNSt6vectorIiSaIiEE4dataEv
	movq	%rax, %rbx
	leaq	a(%rip), %rcx
	call	_ZNSt6vectorIiSaIiEE4dataEv
	movq	%rbx, %rdx
	movq	%rax, %rcx
	call	_Z8dot_metaILi4EiET0_PS0_S1_
	imull	-16(%rbp), %eax
	addl	%eax, 20(%rbp)
	addl	$1, -4(%rbp)
	jmp	.L31
.L30:
	addl	$1, 0(%rbp)
	jmp	.L32
.L29:
	call	_ZNSt6chrono3_V212system_clock3nowEv
	movq	%rax, -96(%rbp)
	leaq	_ZSt5fixedRSt8ios_base(%rip), %rax
	movq	%rax, %rdx
	movq	.refptr._ZSt4cout(%rip), %rcx
	call	_ZNSolsEPFRSt8ios_baseS0_E
	movq	%rax, %rbx
	movl	$2, %ecx
	call	_ZSt12setprecisioni
	movl	%eax, %edx
	movq	%rbx, %rcx
	call	_ZStlsIcSt11char_traitsIcEERSt13basic_ostreamIT_T0_ES6_St13_Setprecision
	leaq	.LC0(%rip), %rdx
	movq	.refptr._ZSt4cout(%rip), %rcx
	call	_ZStlsISt11char_traitsIcEERSt13basic_ostreamIcT_ES5_PKc
	movl	64(%rbp), %edx
	movq	%rax, %rcx
	call	_ZNSolsEi
	leaq	.LC1(%rip), %rdx
	movq	%rax, %rcx
	call	_ZStlsISt11char_traitsIcEERSt13basic_ostreamIcT_ES5_PKc
	leaq	.LC2(%rip), %rdx
	movq	.refptr._ZSt4cout(%rip), %rcx
	call	_ZStlsISt11char_traitsIcEERSt13basic_ostreamIcT_ES5_PKc
	movq	%rax, %rbx
	leaq	-72(%rbp), %rdx
	leaq	-80(%rbp), %rax
	movq	%rax, %rcx
	call	_ZNSt6chronomiINS_3_V212system_clockENS_8durationIxSt5ratioILx1ELx1000000000EEEES6_EENSt11common_typeIJT0_T1_EE4typeERKNS_10time_pointIT_S8_EERKNSC_ISD_S9_EE
	movq	%rax, -56(%rbp)
	leaq	-56(%rbp), %rdx
	leaq	-64(%rbp), %rax
	movq	%rax, %rcx
	call	_ZNSt6chrono8durationIdSt5ratioILx1ELx1000EEEC1IxS1_ILx1ELx1000000000EEvEERKNS0_IT_T0_EE
	leaq	-64(%rbp), %rax
	movq	%rax, %rcx
	call	_ZNKSt6chrono8durationIdSt5ratioILx1ELx1000EEE5countEv
	movq	%xmm0, %rax
	movq	%rax, %xmm1
	movq	%rbx, %rcx
	call	_ZNSolsEd
	leaq	.LC3(%rip), %rdx
	movq	%rax, %rcx
	call	_ZStlsISt11char_traitsIcEERSt13basic_ostreamIcT_ES5_PKc
	leaq	.LC4(%rip), %rdx
	movq	.refptr._ZSt4cout(%rip), %rcx
	call	_ZStlsISt11char_traitsIcEERSt13basic_ostreamIcT_ES5_PKc
	movq	%rax, %rbx
	leaq	-80(%rbp), %rdx
	leaq	-88(%rbp), %rax
	movq	%rax, %rcx
	call	_ZNSt6chronomiINS_3_V212system_clockENS_8durationIxSt5ratioILx1ELx1000000000EEEES6_EENSt11common_typeIJT0_T1_EE4typeERKNS_10time_pointIT_S8_EERKNSC_ISD_S9_EE
	movq	%rax, -40(%rbp)
	leaq	-40(%rbp), %rdx
	leaq	-48(%rbp), %rax
	movq	%rax, %rcx
	call	_ZNSt6chrono8durationIdSt5ratioILx1ELx1000EEEC1IxS1_ILx1ELx1000000000EEvEERKNS0_IT_T0_EE
	leaq	-48(%rbp), %rax
	movq	%rax, %rcx
	call	_ZNKSt6chrono8durationIdSt5ratioILx1ELx1000EEE5countEv
	movq	%xmm0, %rax
	movq	%rax, %xmm1
	movq	%rbx, %rcx
	call	_ZNSolsEd
	leaq	.LC3(%rip), %rdx
	movq	%rax, %rcx
	call	_ZStlsISt11char_traitsIcEERSt13basic_ostreamIcT_ES5_PKc
	leaq	.LC5(%rip), %rdx
	movq	.refptr._ZSt4cout(%rip), %rcx
	call	_ZStlsISt11char_traitsIcEERSt13basic_ostreamIcT_ES5_PKc
	movq	%rax, %rbx
	leaq	-88(%rbp), %rdx
	leaq	-96(%rbp), %rax
	movq	%rax, %rcx
	call	_ZNSt6chronomiINS_3_V212system_clockENS_8durationIxSt5ratioILx1ELx1000000000EEEES6_EENSt11common_typeIJT0_T1_EE4typeERKNS_10time_pointIT_S8_EERKNSC_ISD_S9_EE
	movq	%rax, -24(%rbp)
	leaq	-24(%rbp), %rdx
	leaq	-32(%rbp), %rax
	movq	%rax, %rcx
	call	_ZNSt6chrono8durationIdSt5ratioILx1ELx1000EEEC1IxS1_ILx1ELx1000000000EEvEERKNS0_IT_T0_EE
	leaq	-32(%rbp), %rax
	movq	%rax, %rcx
	call	_ZNKSt6chrono8durationIdSt5ratioILx1ELx1000EEE5countEv
	movq	%xmm0, %rax
	movq	%rax, %xmm1
	movq	%rbx, %rcx
	call	_ZNSolsEd
	leaq	.LC3(%rip), %rdx
	movq	%rax, %rcx
	call	_ZStlsISt11char_traitsIcEERSt13basic_ostreamIcT_ES5_PKc
	leaq	.LC6(%rip), %rdx
	movq	.refptr._ZSt4cout(%rip), %rcx
	call	_ZStlsISt11char_traitsIcEERSt13basic_ostreamIcT_ES5_PKc
	movl	28(%rbp), %ecx
	movl	$1374389535, %edx
	movl	%ecx, %eax
	imull	%edx
	sarl	$5, %edx
	movl	%ecx, %eax
	sarl	$31, %eax
	subl	%eax, %edx
	movl	%edx, %eax
	imull	$100, %eax, %eax
	subl	%eax, %ecx
	movl	%ecx, %eax
	movl	%eax, %edx
	movq	.refptr._ZSt4cout(%rip), %rcx
	call	_ZNSolsEi
	leaq	.LC7(%rip), %rdx
	movq	%rax, %rcx
	call	_ZStlsISt11char_traitsIcEERSt13basic_ostreamIcT_ES5_PKc
	movq	%rax, %r8
	movl	24(%rbp), %ecx
	movl	$1374389535, %edx
	movl	%ecx, %eax
	imull	%edx
	sarl	$5, %edx
	movl	%ecx, %eax
	sarl	$31, %eax
	subl	%eax, %edx
	movl	%edx, %eax
	imull	$100, %eax, %eax
	subl	%eax, %ecx
	movl	%ecx, %eax
	movl	%eax, %edx
	movq	%r8, %rcx
	call	_ZNSolsEi
	leaq	.LC7(%rip), %rdx
	movq	%rax, %rcx
	call	_ZStlsISt11char_traitsIcEERSt13basic_ostreamIcT_ES5_PKc
	movq	%rax, %r8
	movl	20(%rbp), %ecx
	movl	$1374389535, %edx
	movl	%ecx, %eax
	imull	%edx
	sarl	$5, %edx
	movl	%ecx, %eax
	sarl	$31, %eax
	subl	%eax, %edx
	movl	%edx, %eax
	imull	$100, %eax, %eax
	subl	%eax, %ecx
	movl	%ecx, %eax
	movl	%eax, %edx
	movq	%r8, %rcx
	call	_ZNSolsEi
	leaq	.LC8(%rip), %rdx
	movq	%rax, %rcx
	call	_ZStlsISt11char_traitsIcEERSt13basic_ostreamIcT_ES5_PKc
	movq	.refptr._ZSt4endlIcSt11char_traitsIcEERSt13basic_ostreamIT_T0_ES6_(%rip), %rdx
	movq	.refptr._ZSt4cout(%rip), %rcx
	call	_ZNSolsEPFRSoS_E
	nop
	addq	$168, %rsp
	popq	%rbx
	popq	%rbp
	ret
	.seh_endproc
	.def	__main;	.scl	2;	.type	32;	.endef
	.globl	main
	.def	main;	.scl	2;	.type	32;	.endef
	.seh_proc	main
main:
.LFB2789:
	pushq	%rbp
	.seh_pushreg	%rbp
	movq	%rsp, %rbp
	.seh_setframe	%rbp, 0
	subq	$48, %rsp
	.seh_stackalloc	48
	.seh_endprologue
	call	__main
	movl	$1, -4(%rbp)
.L35:
	cmpl	$9, -4(%rbp)
	jg	.L34
	movl	-4(%rbp), %eax
	imull	$1000, %eax, %eax
	movl	%eax, %ecx
	call	_Z9benchmarki
	addl	$2, -4(%rbp)
	jmp	.L35
.L34:
	movl	$0, %eax
	addq	$48, %rsp
	popq	%rbp
	ret
	.seh_endproc
	.section	.text$_ZNKSt6chrono10time_pointINS_3_V212system_clockENS_8durationIxSt5ratioILx1ELx1000000000EEEEE16time_since_epochEv,"x"
	.linkonce discard
	.align 2
	.globl	_ZNKSt6chrono10time_pointINS_3_V212system_clockENS_8durationIxSt5ratioILx1ELx1000000000EEEEE16time_since_epochEv
	.def	_ZNKSt6chrono10time_pointINS_3_V212system_clockENS_8durationIxSt5ratioILx1ELx1000000000EEEEE16time_since_epochEv;	.scl	2;	.type	32;	.endef
	.seh_proc	_ZNKSt6chrono10time_pointINS_3_V212system_clockENS_8durationIxSt5ratioILx1ELx1000000000EEEEE16time_since_epochEv
_ZNKSt6chrono10time_pointINS_3_V212system_clockENS_8durationIxSt5ratioILx1ELx1000000000EEEEE16time_since_epochEv:
.LFB3040:
	pushq	%rbp
	.seh_pushreg	%rbp
	movq	%rsp, %rbp
	.seh_setframe	%rbp, 0
	.seh_endprologue
	movq	%rcx, 16(%rbp)
	movq	16(%rbp), %rax
	movq	(%rax), %rax
	popq	%rbp
	ret
	.seh_endproc
	.section	.text$_ZNSaIiEC1Ev,"x"
	.linkonce discard
	.align 2
	.globl	_ZNSaIiEC1Ev
	.def	_ZNSaIiEC1Ev;	.scl	2;	.type	32;	.endef
	.seh_proc	_ZNSaIiEC1Ev
_ZNSaIiEC1Ev:
.LFB3070:
	pushq	%rbp
	.seh_pushreg	%rbp
	movq	%rsp, %rbp
	.seh_setframe	%rbp, 0
	subq	$32, %rsp
	.seh_stackalloc	32
	.seh_endprologue
	movq	%rcx, 16(%rbp)
	movq	16(%rbp), %rcx
	call	_ZN9__gnu_cxx13new_allocatorIiEC2Ev
	nop
	addq	$32, %rsp
	popq	%rbp
	ret
	.seh_endproc
	.section	.text$_ZNSaIiED2Ev,"x"
	.linkonce discard
	.align 2
	.globl	_ZNSaIiED2Ev
	.def	_ZNSaIiED2Ev;	.scl	2;	.type	32;	.endef
	.seh_proc	_ZNSaIiED2Ev
_ZNSaIiED2Ev:
.LFB3072:
	pushq	%rbp
	.seh_pushreg	%rbp
	movq	%rsp, %rbp
	.seh_setframe	%rbp, 0
	subq	$32, %rsp
	.seh_stackalloc	32
	.seh_endprologue
	movq	%rcx, 16(%rbp)
	movq	16(%rbp), %rcx
	call	_ZN9__gnu_cxx13new_allocatorIiED2Ev
	nop
	addq	$32, %rsp
	popq	%rbp
	ret
	.seh_endproc
	.section	.text$_ZNSaIiED1Ev,"x"
	.linkonce discard
	.align 2
	.globl	_ZNSaIiED1Ev
	.def	_ZNSaIiED1Ev;	.scl	2;	.type	32;	.endef
	.seh_proc	_ZNSaIiED1Ev
_ZNSaIiED1Ev:
.LFB3073:
	pushq	%rbp
	.seh_pushreg	%rbp
	movq	%rsp, %rbp
	.seh_setframe	%rbp, 0
	subq	$32, %rsp
	.seh_stackalloc	32
	.seh_endprologue
	movq	%rcx, 16(%rbp)
	movq	16(%rbp), %rcx
	call	_ZN9__gnu_cxx13new_allocatorIiED2Ev
	nop
	addq	$32, %rsp
	popq	%rbp
	ret
	.seh_endproc
	.section	.text$_ZNSt6vectorIiSaIiEEC1ESt16initializer_listIiERKS0_,"x"
	.linkonce discard
	.align 2
	.globl	_ZNSt6vectorIiSaIiEEC1ESt16initializer_listIiERKS0_
	.def	_ZNSt6vectorIiSaIiEEC1ESt16initializer_listIiERKS0_;	.scl	2;	.type	32;	.endef
	.seh_proc	_ZNSt6vectorIiSaIiEEC1ESt16initializer_listIiERKS0_
_ZNSt6vectorIiSaIiEEC1ESt16initializer_listIiERKS0_:
.LFB3076:
	pushq	%rbp
	.seh_pushreg	%rbp
	pushq	%rsi
	.seh_pushreg	%rsi
	pushq	%rbx
	.seh_pushreg	%rbx
	movq	%rsp, %rbp
	.seh_setframe	%rbp, 0
	subq	$64, %rsp
	.seh_stackalloc	64
	.seh_endprologue
	movq	%rcx, 32(%rbp)
	movq	%rdx, %rbx
	movq	(%rbx), %rax
	movq	8(%rbx), %rdx
	movq	%rax, -32(%rbp)
	movq	%rdx, -24(%rbp)
	movq	%r8, 48(%rbp)
	movq	32(%rbp), %rax
	movq	48(%rbp), %rdx
	movq	%rax, %rcx
	call	_ZNSt12_Vector_baseIiSaIiEEC2ERKS0_
	leaq	-32(%rbp), %rax
	movq	%rax, %rcx
	call	_ZNKSt16initializer_listIiE3endEv
	movq	%rax, %rbx
	leaq	-32(%rbp), %rax
	movq	%rax, %rcx
	call	_ZNKSt16initializer_listIiE5beginEv
	movl	%esi, %r9d
	movq	%rbx, %r8
	movq	%rax, %rdx
	movq	32(%rbp), %rcx
.LEHB0:
	call	_ZNSt6vectorIiSaIiEE19_M_range_initializeIPKiEEvT_S5_St20forward_iterator_tag
.LEHE0:
	jmp	.L45
.L44:
	movq	%rax, %rbx
	movq	32(%rbp), %rax
	movq	%rax, %rcx
	call	_ZNSt12_Vector_baseIiSaIiEED2Ev
	movq	%rbx, %rax
	movq	%rax, %rcx
.LEHB1:
	call	_Unwind_Resume
	nop
.LEHE1:
.L45:
	addq	$64, %rsp
	popq	%rbx
	popq	%rsi
	popq	%rbp
	ret
	.def	__gxx_personality_seh0;	.scl	2;	.type	32;	.endef
	.seh_handler	__gxx_personality_seh0, @unwind, @except
	.seh_handlerdata
.LLSDA3076:
	.byte	0xff
	.byte	0xff
	.byte	0x1
	.uleb128 .LLSDACSE3076-.LLSDACSB3076
.LLSDACSB3076:
	.uleb128 .LEHB0-.LFB3076
	.uleb128 .LEHE0-.LEHB0
	.uleb128 .L44-.LFB3076
	.uleb128 0
	.uleb128 .LEHB1-.LFB3076
	.uleb128 .LEHE1-.LEHB1
	.uleb128 0
	.uleb128 0
.LLSDACSE3076:
	.section	.text$_ZNSt6vectorIiSaIiEEC1ESt16initializer_listIiERKS0_,"x"
	.linkonce discard
	.seh_endproc
	.section	.text$_ZNSt6vectorIiSaIiEED1Ev,"x"
	.linkonce discard
	.align 2
	.globl	_ZNSt6vectorIiSaIiEED1Ev
	.def	_ZNSt6vectorIiSaIiEED1Ev;	.scl	2;	.type	32;	.endef
	.seh_proc	_ZNSt6vectorIiSaIiEED1Ev
_ZNSt6vectorIiSaIiEED1Ev:
.LFB3079:
	pushq	%rbp
	.seh_pushreg	%rbp
	movq	%rsp, %rbp
	.seh_setframe	%rbp, 0
	subq	$32, %rsp
	.seh_stackalloc	32
	.seh_endprologue
	movq	%rcx, 16(%rbp)
	movq	16(%rbp), %rax
	movq	%rax, %rcx
	call	_ZNSt12_Vector_baseIiSaIiEE19_M_get_Tp_allocatorEv
	movq	%rax, %rcx
	movq	16(%rbp), %rax
	movq	8(%rax), %rdx
	movq	16(%rbp), %rax
	movq	(%rax), %rax
	movq	%rcx, %r8
	movq	%rax, %rcx
	call	_ZSt8_DestroyIPiiEvT_S1_RSaIT0_E
	movq	16(%rbp), %rax
	movq	%rax, %rcx
	call	_ZNSt12_Vector_baseIiSaIiEED2Ev
	nop
	addq	$32, %rsp
	popq	%rbp
	ret
	.seh_handler	__gxx_personality_seh0, @unwind, @except
	.seh_handlerdata
.LLSDA3079:
	.byte	0xff
	.byte	0xff
	.byte	0x1
	.uleb128 .LLSDACSE3079-.LLSDACSB3079
.LLSDACSB3079:
.LLSDACSE3079:
	.section	.text$_ZNSt6vectorIiSaIiEED1Ev,"x"
	.linkonce discard
	.seh_endproc
	.section	.text$_ZNSt6vectorIiSaIiEE4dataEv,"x"
	.linkonce discard
	.align 2
	.globl	_ZNSt6vectorIiSaIiEE4dataEv
	.def	_ZNSt6vectorIiSaIiEE4dataEv;	.scl	2;	.type	32;	.endef
	.seh_proc	_ZNSt6vectorIiSaIiEE4dataEv
_ZNSt6vectorIiSaIiEE4dataEv:
.LFB3080:
	pushq	%rbp
	.seh_pushreg	%rbp
	movq	%rsp, %rbp
	.seh_setframe	%rbp, 0
	subq	$32, %rsp
	.seh_stackalloc	32
	.seh_endprologue
	movq	%rcx, 16(%rbp)
	movq	16(%rbp), %rax
	movq	(%rax), %rax
	movq	%rax, %rdx
	movq	16(%rbp), %rcx
	call	_ZNKSt6vectorIiSaIiEE11_M_data_ptrIiEEPT_S4_
	addq	$32, %rsp
	popq	%rbp
	ret
	.seh_endproc
	.section	.text$_Z3dotIiET_iPS0_S1_,"x"
	.linkonce discard
	.globl	_Z3dotIiET_iPS0_S1_
	.def	_Z3dotIiET_iPS0_S1_;	.scl	2;	.type	32;	.endef
	.seh_proc	_Z3dotIiET_iPS0_S1_
_Z3dotIiET_iPS0_S1_:
.LFB3081:
	pushq	%rbp
	.seh_pushreg	%rbp
	movq	%rsp, %rbp
	.seh_setframe	%rbp, 0
	subq	$16, %rsp
	.seh_stackalloc	16
	.seh_endprologue
	movl	%ecx, 16(%rbp)
	movq	%rdx, 24(%rbp)
	movq	%r8, 32(%rbp)
	movl	$0, -4(%rbp)
	movl	$0, -8(%rbp)
.L51:
	movl	-8(%rbp), %eax
	cmpl	16(%rbp), %eax
	jge	.L50
	movl	-8(%rbp), %eax
	cltq
	leaq	0(,%rax,4), %rdx
	movq	24(%rbp), %rax
	addq	%rdx, %rax
	movl	(%rax), %edx
	movl	-8(%rbp), %eax
	cltq
	leaq	0(,%rax,4), %rcx
	movq	32(%rbp), %rax
	addq	%rcx, %rax
	movl	(%rax), %eax
	imull	%edx, %eax
	addl	%eax, -4(%rbp)
	addl	$1, -8(%rbp)
	jmp	.L51
.L50:
	movl	-4(%rbp), %eax
	addq	$16, %rsp
	popq	%rbp
	ret
	.seh_endproc
	.section	.text$_Z6dot_reIiET_iPS0_S1_,"x"
	.linkonce discard
	.globl	_Z6dot_reIiET_iPS0_S1_
	.def	_Z6dot_reIiET_iPS0_S1_;	.scl	2;	.type	32;	.endef
	.seh_proc	_Z6dot_reIiET_iPS0_S1_
_Z6dot_reIiET_iPS0_S1_:
.LFB3082:
	pushq	%rbp
	.seh_pushreg	%rbp
	pushq	%rbx
	.seh_pushreg	%rbx
	subq	$40, %rsp
	.seh_stackalloc	40
	leaq	128(%rsp), %rbp
	.seh_setframe	%rbp, 128
	.seh_endprologue
	movl	%ecx, -64(%rbp)
	movq	%rdx, -56(%rbp)
	movq	%r8, -48(%rbp)
	cmpl	$1, -64(%rbp)
	jne	.L54
	movq	-56(%rbp), %rax
	movl	(%rax), %edx
	movq	-48(%rbp), %rax
	movl	(%rax), %eax
	imull	%edx, %eax
	jmp	.L55
.L54:
	movq	-56(%rbp), %rax
	movl	(%rax), %edx
	movq	-48(%rbp), %rax
	movl	(%rax), %eax
	movl	%edx, %ebx
	imull	%eax, %ebx
	movq	-48(%rbp), %rax
	leaq	4(%rax), %rcx
	movq	-56(%rbp), %rax
	leaq	4(%rax), %rdx
	movl	-64(%rbp), %eax
	subl	$1, %eax
	movq	%rcx, %r8
	movl	%eax, %ecx
	call	_Z6dot_reIiET_iPS0_S1_
	addl	%ebx, %eax
.L55:
	addq	$40, %rsp
	popq	%rbx
	popq	%rbp
	ret
	.seh_endproc
	.section	.text$_Z8dot_metaILi4EiET0_PS0_S1_,"x"
	.linkonce discard
	.globl	_Z8dot_metaILi4EiET0_PS0_S1_
	.def	_Z8dot_metaILi4EiET0_PS0_S1_;	.scl	2;	.type	32;	.endef
	.seh_proc	_Z8dot_metaILi4EiET0_PS0_S1_
_Z8dot_metaILi4EiET0_PS0_S1_:
.LFB3083:
	pushq	%rbp
	.seh_pushreg	%rbp
	movq	%rsp, %rbp
	.seh_setframe	%rbp, 0
	subq	$32, %rsp
	.seh_stackalloc	32
	.seh_endprologue
	movq	%rcx, 16(%rbp)
	movq	%rdx, 24(%rbp)
	movq	24(%rbp), %rax
	movq	%rax, %rdx
	movq	16(%rbp), %rcx
	call	_ZN5__DotILi4EiE6resultEPiS1_
	addq	$32, %rsp
	popq	%rbp
	ret
	.seh_endproc
	.section	.text$_ZNSt6chronomiINS_3_V212system_clockENS_8durationIxSt5ratioILx1ELx1000000000EEEES6_EENSt11common_typeIJT0_T1_EE4typeERKNS_10time_pointIT_S8_EERKNSC_ISD_S9_EE,"x"
	.linkonce discard
	.globl	_ZNSt6chronomiINS_3_V212system_clockENS_8durationIxSt5ratioILx1ELx1000000000EEEES6_EENSt11common_typeIJT0_T1_EE4typeERKNS_10time_pointIT_S8_EERKNSC_ISD_S9_EE
	.def	_ZNSt6chronomiINS_3_V212system_clockENS_8durationIxSt5ratioILx1ELx1000000000EEEES6_EENSt11common_typeIJT0_T1_EE4typeERKNS_10time_pointIT_S8_EERKNSC_ISD_S9_EE;	.scl	2;	.type	32;	.endef
	.seh_proc	_ZNSt6chronomiINS_3_V212system_clockENS_8durationIxSt5ratioILx1ELx1000000000EEEES6_EENSt11common_typeIJT0_T1_EE4typeERKNS_10time_pointIT_S8_EERKNSC_ISD_S9_EE
_ZNSt6chronomiINS_3_V212system_clockENS_8durationIxSt5ratioILx1ELx1000000000EEEES6_EENSt11common_typeIJT0_T1_EE4typeERKNS_10time_pointIT_S8_EERKNSC_ISD_S9_EE:
.LFB3087:
	pushq	%rbp
	.seh_pushreg	%rbp
	movq	%rsp, %rbp
	.seh_setframe	%rbp, 0
	subq	$48, %rsp
	.seh_stackalloc	48
	.seh_endprologue
	movq	%rcx, 16(%rbp)
	movq	%rdx, 24(%rbp)
	movq	24(%rbp), %rax
	movq	%rax, %rcx
	call	_ZNKSt6chrono10time_pointINS_3_V212system_clockENS_8durationIxSt5ratioILx1ELx1000000000EEEEE16time_since_epochEv
	movq	%rax, -16(%rbp)
	movq	16(%rbp), %rcx
	call	_ZNKSt6chrono10time_pointINS_3_V212system_clockENS_8durationIxSt5ratioILx1ELx1000000000EEEEE16time_since_epochEv
	movq	%rax, -8(%rbp)
	leaq	-16(%rbp), %rdx
	leaq	-8(%rbp), %rax
	movq	%rax, %rcx
	call	_ZNSt6chronomiIxSt5ratioILx1ELx1000000000EExS2_EENSt11common_typeIJNS_8durationIT_T0_EENS4_IT1_T2_EEEE4typeERKS7_RKSA_
	nop
	addq	$48, %rsp
	popq	%rbp
	ret
	.seh_endproc
	.section	.text$_ZNSt6chrono8durationIdSt5ratioILx1ELx1000EEEC1IxS1_ILx1ELx1000000000EEvEERKNS0_IT_T0_EE,"x"
	.linkonce discard
	.align 2
	.globl	_ZNSt6chrono8durationIdSt5ratioILx1ELx1000EEEC1IxS1_ILx1ELx1000000000EEvEERKNS0_IT_T0_EE
	.def	_ZNSt6chrono8durationIdSt5ratioILx1ELx1000EEEC1IxS1_ILx1ELx1000000000EEvEERKNS0_IT_T0_EE;	.scl	2;	.type	32;	.endef
	.seh_proc	_ZNSt6chrono8durationIdSt5ratioILx1ELx1000EEEC1IxS1_ILx1ELx1000000000EEvEERKNS0_IT_T0_EE
_ZNSt6chrono8durationIdSt5ratioILx1ELx1000EEEC1IxS1_ILx1ELx1000000000EEvEERKNS0_IT_T0_EE:
.LFB3090:
	pushq	%rbp
	.seh_pushreg	%rbp
	movq	%rsp, %rbp
	.seh_setframe	%rbp, 0
	subq	$48, %rsp
	.seh_stackalloc	48
	.seh_endprologue
	movq	%rcx, 16(%rbp)
	movq	%rdx, 24(%rbp)
	movq	24(%rbp), %rax
	movq	%rax, %rcx
	call	_ZNSt6chrono13duration_castINS_8durationIdSt5ratioILx1ELx1000EEEExS2_ILx1ELx1000000000EEEENSt9enable_ifIXsrNS_13__is_durationIT_EE5valueES8_E4typeERKNS1_IT0_T1_EE
	movq	%xmm0, %rax
	movq	%rax, %xmm0
	movsd	%xmm0, -8(%rbp)
	leaq	-8(%rbp), %rax
	movq	%rax, %rcx
	call	_ZNKSt6chrono8durationIdSt5ratioILx1ELx1000EEE5countEv
	movq	%xmm0, %rdx
	movq	16(%rbp), %rax
	movq	%rdx, (%rax)
	nop
	addq	$48, %rsp
	popq	%rbp
	ret
	.seh_endproc
	.section	.text$_ZNKSt6chrono8durationIdSt5ratioILx1ELx1000EEE5countEv,"x"
	.linkonce discard
	.align 2
	.globl	_ZNKSt6chrono8durationIdSt5ratioILx1ELx1000EEE5countEv
	.def	_ZNKSt6chrono8durationIdSt5ratioILx1ELx1000EEE5countEv;	.scl	2;	.type	32;	.endef
	.seh_proc	_ZNKSt6chrono8durationIdSt5ratioILx1ELx1000EEE5countEv
_ZNKSt6chrono8durationIdSt5ratioILx1ELx1000EEE5countEv:
.LFB3091:
	pushq	%rbp
	.seh_pushreg	%rbp
	movq	%rsp, %rbp
	.seh_setframe	%rbp, 0
	.seh_endprologue
	movq	%rcx, 16(%rbp)
	movq	16(%rbp), %rax
	movsd	(%rax), %xmm0
	movq	%xmm0, %rax
	movq	%rax, %xmm0
	popq	%rbp
	ret
	.seh_endproc
	.section	.text$_ZN9__gnu_cxx13new_allocatorIiEC2Ev,"x"
	.linkonce discard
	.align 2
	.globl	_ZN9__gnu_cxx13new_allocatorIiEC2Ev
	.def	_ZN9__gnu_cxx13new_allocatorIiEC2Ev;	.scl	2;	.type	32;	.endef
	.seh_proc	_ZN9__gnu_cxx13new_allocatorIiEC2Ev
_ZN9__gnu_cxx13new_allocatorIiEC2Ev:
.LFB3210:
	pushq	%rbp
	.seh_pushreg	%rbp
	movq	%rsp, %rbp
	.seh_setframe	%rbp, 0
	.seh_endprologue
	movq	%rcx, 16(%rbp)
	nop
	popq	%rbp
	ret
	.seh_endproc
	.section	.text$_ZN9__gnu_cxx13new_allocatorIiED2Ev,"x"
	.linkonce discard
	.align 2
	.globl	_ZN9__gnu_cxx13new_allocatorIiED2Ev
	.def	_ZN9__gnu_cxx13new_allocatorIiED2Ev;	.scl	2;	.type	32;	.endef
	.seh_proc	_ZN9__gnu_cxx13new_allocatorIiED2Ev
_ZN9__gnu_cxx13new_allocatorIiED2Ev:
.LFB3213:
	pushq	%rbp
	.seh_pushreg	%rbp
	movq	%rsp, %rbp
	.seh_setframe	%rbp, 0
	.seh_endprologue
	movq	%rcx, 16(%rbp)
	nop
	popq	%rbp
	ret
	.seh_endproc
	.section	.text$_ZNSt12_Vector_baseIiSaIiEE12_Vector_implD1Ev,"x"
	.linkonce discard
	.align 2
	.globl	_ZNSt12_Vector_baseIiSaIiEE12_Vector_implD1Ev
	.def	_ZNSt12_Vector_baseIiSaIiEE12_Vector_implD1Ev;	.scl	2;	.type	32;	.endef
	.seh_proc	_ZNSt12_Vector_baseIiSaIiEE12_Vector_implD1Ev
_ZNSt12_Vector_baseIiSaIiEE12_Vector_implD1Ev:
.LFB3218:
	pushq	%rbp
	.seh_pushreg	%rbp
	movq	%rsp, %rbp
	.seh_setframe	%rbp, 0
	subq	$32, %rsp
	.seh_stackalloc	32
	.seh_endprologue
	movq	%rcx, 16(%rbp)
	movq	16(%rbp), %rcx
	call	_ZNSaIiED2Ev
	nop
	addq	$32, %rsp
	popq	%rbp
	ret
	.seh_endproc
	.section	.text$_ZNSt12_Vector_baseIiSaIiEEC2ERKS0_,"x"
	.linkonce discard
	.align 2
	.globl	_ZNSt12_Vector_baseIiSaIiEEC2ERKS0_
	.def	_ZNSt12_Vector_baseIiSaIiEEC2ERKS0_;	.scl	2;	.type	32;	.endef
	.seh_proc	_ZNSt12_Vector_baseIiSaIiEEC2ERKS0_
_ZNSt12_Vector_baseIiSaIiEEC2ERKS0_:
.LFB3219:
	pushq	%rbp
	.seh_pushreg	%rbp
	movq	%rsp, %rbp
	.seh_setframe	%rbp, 0
	subq	$32, %rsp
	.seh_stackalloc	32
	.seh_endprologue
	movq	%rcx, 16(%rbp)
	movq	%rdx, 24(%rbp)
	movq	16(%rbp), %rax
	movq	24(%rbp), %rdx
	movq	%rax, %rcx
	call	_ZNSt12_Vector_baseIiSaIiEE12_Vector_implC1ERKS0_
	nop
	addq	$32, %rsp
	popq	%rbp
	ret
	.seh_endproc
	.section	.text$_ZNSt12_Vector_baseIiSaIiEED2Ev,"x"
	.linkonce discard
	.align 2
	.globl	_ZNSt12_Vector_baseIiSaIiEED2Ev
	.def	_ZNSt12_Vector_baseIiSaIiEED2Ev;	.scl	2;	.type	32;	.endef
	.seh_proc	_ZNSt12_Vector_baseIiSaIiEED2Ev
_ZNSt12_Vector_baseIiSaIiEED2Ev:
.LFB3222:
	pushq	%rbp
	.seh_pushreg	%rbp
	movq	%rsp, %rbp
	.seh_setframe	%rbp, 0
	subq	$32, %rsp
	.seh_stackalloc	32
	.seh_endprologue
	movq	%rcx, 16(%rbp)
	movq	16(%rbp), %rax
	movq	16(%rax), %rdx
	movq	16(%rbp), %rax
	movq	(%rax), %rax
	subq	%rax, %rdx
	movq	%rdx, %rax
	sarq	$2, %rax
	movq	%rax, %rdx
	movq	16(%rbp), %rax
	movq	(%rax), %rax
	movq	%rdx, %r8
	movq	%rax, %rdx
	movq	16(%rbp), %rcx
	call	_ZNSt12_Vector_baseIiSaIiEE13_M_deallocateEPiy
	movq	16(%rbp), %rax
	movq	%rax, %rcx
	call	_ZNSt12_Vector_baseIiSaIiEE12_Vector_implD1Ev
	nop
	addq	$32, %rsp
	popq	%rbp
	ret
	.seh_handler	__gxx_personality_seh0, @unwind, @except
	.seh_handlerdata
.LLSDA3222:
	.byte	0xff
	.byte	0xff
	.byte	0x1
	.uleb128 .LLSDACSE3222-.LLSDACSB3222
.LLSDACSB3222:
.LLSDACSE3222:
	.section	.text$_ZNSt12_Vector_baseIiSaIiEED2Ev,"x"
	.linkonce discard
	.seh_endproc
	.section	.text$_ZNKSt16initializer_listIiE5beginEv,"x"
	.linkonce discard
	.align 2
	.globl	_ZNKSt16initializer_listIiE5beginEv
	.def	_ZNKSt16initializer_listIiE5beginEv;	.scl	2;	.type	32;	.endef
	.seh_proc	_ZNKSt16initializer_listIiE5beginEv
_ZNKSt16initializer_listIiE5beginEv:
.LFB3224:
	pushq	%rbp
	.seh_pushreg	%rbp
	movq	%rsp, %rbp
	.seh_setframe	%rbp, 0
	.seh_endprologue
	movq	%rcx, 16(%rbp)
	movq	16(%rbp), %rax
	movq	(%rax), %rax
	popq	%rbp
	ret
	.seh_endproc
	.section	.text$_ZNKSt16initializer_listIiE3endEv,"x"
	.linkonce discard
	.align 2
	.globl	_ZNKSt16initializer_listIiE3endEv
	.def	_ZNKSt16initializer_listIiE3endEv;	.scl	2;	.type	32;	.endef
	.seh_proc	_ZNKSt16initializer_listIiE3endEv
_ZNKSt16initializer_listIiE3endEv:
.LFB3225:
	pushq	%rbp
	.seh_pushreg	%rbp
	pushq	%rbx
	.seh_pushreg	%rbx
	subq	$40, %rsp
	.seh_stackalloc	40
	leaq	128(%rsp), %rbp
	.seh_setframe	%rbp, 128
	.seh_endprologue
	movq	%rcx, -64(%rbp)
	movq	-64(%rbp), %rcx
	call	_ZNKSt16initializer_listIiE5beginEv
	movq	%rax, %rbx
	movq	-64(%rbp), %rcx
	call	_ZNKSt16initializer_listIiE4sizeEv
	salq	$2, %rax
	addq	%rbx, %rax
	addq	$40, %rsp
	popq	%rbx
	popq	%rbp
	ret
	.seh_endproc
	.section	.text$_ZNSt6vectorIiSaIiEE19_M_range_initializeIPKiEEvT_S5_St20forward_iterator_tag,"x"
	.linkonce discard
	.align 2
	.globl	_ZNSt6vectorIiSaIiEE19_M_range_initializeIPKiEEvT_S5_St20forward_iterator_tag
	.def	_ZNSt6vectorIiSaIiEE19_M_range_initializeIPKiEEvT_S5_St20forward_iterator_tag;	.scl	2;	.type	32;	.endef
	.seh_proc	_ZNSt6vectorIiSaIiEE19_M_range_initializeIPKiEEvT_S5_St20forward_iterator_tag
_ZNSt6vectorIiSaIiEE19_M_range_initializeIPKiEEvT_S5_St20forward_iterator_tag:
.LFB3226:
	pushq	%rbp
	.seh_pushreg	%rbp
	movq	%rsp, %rbp
	.seh_setframe	%rbp, 0
	subq	$48, %rsp
	.seh_stackalloc	48
	.seh_endprologue
	movq	%rcx, 16(%rbp)
	movq	%rdx, 24(%rbp)
	movq	%r8, 32(%rbp)
	movb	%r9b, 40(%rbp)
	movq	32(%rbp), %rdx
	movq	24(%rbp), %rax
	movq	%rax, %rcx
	call	_ZSt8distanceIPKiENSt15iterator_traitsIT_E15difference_typeES3_S3_
	movq	%rax, -8(%rbp)
	movq	16(%rbp), %rax
	movq	-8(%rbp), %rdx
	movq	%rax, %rcx
	call	_ZNSt12_Vector_baseIiSaIiEE11_M_allocateEy
	movq	%rax, %rdx
	movq	16(%rbp), %rax
	movq	%rdx, (%rax)
	movq	16(%rbp), %rax
	movq	(%rax), %rdx
	movq	-8(%rbp), %rax
	salq	$2, %rax
	addq	%rax, %rdx
	movq	16(%rbp), %rax
	movq	%rdx, 16(%rax)
	movq	16(%rbp), %rax
	movq	%rax, %rcx
	call	_ZNSt12_Vector_baseIiSaIiEE19_M_get_Tp_allocatorEv
	movq	%rax, %r8
	movq	16(%rbp), %rax
	movq	(%rax), %rcx
	movq	32(%rbp), %rdx
	movq	24(%rbp), %rax
	movq	%r8, %r9
	movq	%rcx, %r8
	movq	%rax, %rcx
	call	_ZSt22__uninitialized_copy_aIPKiPiiET0_T_S4_S3_RSaIT1_E
	movq	%rax, %rdx
	movq	16(%rbp), %rax
	movq	%rdx, 8(%rax)
	nop
	addq	$48, %rsp
	popq	%rbp
	ret
	.seh_endproc
	.section	.text$_ZNSt12_Vector_baseIiSaIiEE19_M_get_Tp_allocatorEv,"x"
	.linkonce discard
	.align 2
	.globl	_ZNSt12_Vector_baseIiSaIiEE19_M_get_Tp_allocatorEv
	.def	_ZNSt12_Vector_baseIiSaIiEE19_M_get_Tp_allocatorEv;	.scl	2;	.type	32;	.endef
	.seh_proc	_ZNSt12_Vector_baseIiSaIiEE19_M_get_Tp_allocatorEv
_ZNSt12_Vector_baseIiSaIiEE19_M_get_Tp_allocatorEv:
.LFB3227:
	pushq	%rbp
	.seh_pushreg	%rbp
	movq	%rsp, %rbp
	.seh_setframe	%rbp, 0
	.seh_endprologue
	movq	%rcx, 16(%rbp)
	movq	16(%rbp), %rax
	popq	%rbp
	ret
	.seh_endproc
	.section	.text$_ZSt8_DestroyIPiiEvT_S1_RSaIT0_E,"x"
	.linkonce discard
	.globl	_ZSt8_DestroyIPiiEvT_S1_RSaIT0_E
	.def	_ZSt8_DestroyIPiiEvT_S1_RSaIT0_E;	.scl	2;	.type	32;	.endef
	.seh_proc	_ZSt8_DestroyIPiiEvT_S1_RSaIT0_E
_ZSt8_DestroyIPiiEvT_S1_RSaIT0_E:
.LFB3228:
	pushq	%rbp
	.seh_pushreg	%rbp
	movq	%rsp, %rbp
	.seh_setframe	%rbp, 0
	subq	$32, %rsp
	.seh_stackalloc	32
	.seh_endprologue
	movq	%rcx, 16(%rbp)
	movq	%rdx, 24(%rbp)
	movq	%r8, 32(%rbp)
	movq	24(%rbp), %rax
	movq	%rax, %rdx
	movq	16(%rbp), %rcx
	call	_ZSt8_DestroyIPiEvT_S1_
	nop
	addq	$32, %rsp
	popq	%rbp
	ret
	.seh_endproc
	.section	.text$_ZNKSt6vectorIiSaIiEE11_M_data_ptrIiEEPT_S4_,"x"
	.linkonce discard
	.align 2
	.globl	_ZNKSt6vectorIiSaIiEE11_M_data_ptrIiEEPT_S4_
	.def	_ZNKSt6vectorIiSaIiEE11_M_data_ptrIiEEPT_S4_;	.scl	2;	.type	32;	.endef
	.seh_proc	_ZNKSt6vectorIiSaIiEE11_M_data_ptrIiEEPT_S4_
_ZNKSt6vectorIiSaIiEE11_M_data_ptrIiEEPT_S4_:
.LFB3229:
	pushq	%rbp
	.seh_pushreg	%rbp
	movq	%rsp, %rbp
	.seh_setframe	%rbp, 0
	.seh_endprologue
	movq	%rcx, 16(%rbp)
	movq	%rdx, 24(%rbp)
	movq	24(%rbp), %rax
	popq	%rbp
	ret
	.seh_endproc
	.section	.text$_ZN5__DotILi4EiE6resultEPiS1_,"x"
	.linkonce discard
	.globl	_ZN5__DotILi4EiE6resultEPiS1_
	.def	_ZN5__DotILi4EiE6resultEPiS1_;	.scl	2;	.type	32;	.endef
	.seh_proc	_ZN5__DotILi4EiE6resultEPiS1_
_ZN5__DotILi4EiE6resultEPiS1_:
.LFB3230:
	pushq	%rbp
	.seh_pushreg	%rbp
	pushq	%rbx
	.seh_pushreg	%rbx
	subq	$40, %rsp
	.seh_stackalloc	40
	leaq	128(%rsp), %rbp
	.seh_setframe	%rbp, 128
	.seh_endprologue
	movq	%rcx, -64(%rbp)
	movq	%rdx, -56(%rbp)
	movq	-64(%rbp), %rax
	movl	(%rax), %edx
	movq	-56(%rbp), %rax
	movl	(%rax), %eax
	movl	%edx, %ebx
	imull	%eax, %ebx
	movq	-56(%rbp), %rax
	leaq	4(%rax), %rdx
	movq	-64(%rbp), %rax
	addq	$4, %rax
	movq	%rax, %rcx
	call	_ZN5__DotILi3EiE6resultEPiS1_
	addl	%ebx, %eax
	addq	$40, %rsp
	popq	%rbx
	popq	%rbp
	ret
	.seh_endproc
	.section	.text$_ZNSt6chronomiIxSt5ratioILx1ELx1000000000EExS2_EENSt11common_typeIJNS_8durationIT_T0_EENS4_IT1_T2_EEEE4typeERKS7_RKSA_,"x"
	.linkonce discard
	.globl	_ZNSt6chronomiIxSt5ratioILx1ELx1000000000EExS2_EENSt11common_typeIJNS_8durationIT_T0_EENS4_IT1_T2_EEEE4typeERKS7_RKSA_
	.def	_ZNSt6chronomiIxSt5ratioILx1ELx1000000000EExS2_EENSt11common_typeIJNS_8durationIT_T0_EENS4_IT1_T2_EEEE4typeERKS7_RKSA_;	.scl	2;	.type	32;	.endef
	.seh_proc	_ZNSt6chronomiIxSt5ratioILx1ELx1000000000EExS2_EENSt11common_typeIJNS_8durationIT_T0_EENS4_IT1_T2_EEEE4typeERKS7_RKSA_
_ZNSt6chronomiIxSt5ratioILx1ELx1000000000EExS2_EENSt11common_typeIJNS_8durationIT_T0_EENS4_IT1_T2_EEEE4typeERKS7_RKSA_:
.LFB3232:
	pushq	%rbp
	.seh_pushreg	%rbp
	pushq	%rbx
	.seh_pushreg	%rbx
	subq	$72, %rsp
	.seh_stackalloc	72
	leaq	128(%rsp), %rbp
	.seh_setframe	%rbp, 128
	.seh_endprologue
	movq	%rcx, -32(%rbp)
	movq	%rdx, -24(%rbp)
	movq	-32(%rbp), %rax
	movq	(%rax), %rax
	movq	%rax, -80(%rbp)
	leaq	-80(%rbp), %rax
	movq	%rax, %rcx
	call	_ZNKSt6chrono8durationIxSt5ratioILx1ELx1000000000EEE5countEv
	movq	%rax, %rbx
	movq	-24(%rbp), %rax
	movq	(%rax), %rax
	movq	%rax, -72(%rbp)
	leaq	-72(%rbp), %rax
	movq	%rax, %rcx
	call	_ZNKSt6chrono8durationIxSt5ratioILx1ELx1000000000EEE5countEv
	subq	%rax, %rbx
	movq	%rbx, %rax
	movq	%rax, -88(%rbp)
	leaq	-88(%rbp), %rdx
	leaq	-96(%rbp), %rax
	movq	%rax, %rcx
	call	_ZNSt6chrono8durationIxSt5ratioILx1ELx1000000000EEEC1IxvEERKT_
	movq	-96(%rbp), %rax
	addq	$72, %rsp
	popq	%rbx
	popq	%rbp
	ret
	.seh_endproc
	.section	.text$_ZNSt6chrono13duration_castINS_8durationIdSt5ratioILx1ELx1000EEEExS2_ILx1ELx1000000000EEEENSt9enable_ifIXsrNS_13__is_durationIT_EE5valueES8_E4typeERKNS1_IT0_T1_EE,"x"
	.linkonce discard
	.globl	_ZNSt6chrono13duration_castINS_8durationIdSt5ratioILx1ELx1000EEEExS2_ILx1ELx1000000000EEEENSt9enable_ifIXsrNS_13__is_durationIT_EE5valueES8_E4typeERKNS1_IT0_T1_EE
	.def	_ZNSt6chrono13duration_castINS_8durationIdSt5ratioILx1ELx1000EEEExS2_ILx1ELx1000000000EEEENSt9enable_ifIXsrNS_13__is_durationIT_EE5valueES8_E4typeERKNS1_IT0_T1_EE;	.scl	2;	.type	32;	.endef
	.seh_proc	_ZNSt6chrono13duration_castINS_8durationIdSt5ratioILx1ELx1000EEEExS2_ILx1ELx1000000000EEEENSt9enable_ifIXsrNS_13__is_durationIT_EE5valueES8_E4typeERKNS1_IT0_T1_EE
_ZNSt6chrono13duration_castINS_8durationIdSt5ratioILx1ELx1000EEEExS2_ILx1ELx1000000000EEEENSt9enable_ifIXsrNS_13__is_durationIT_EE5valueES8_E4typeERKNS1_IT0_T1_EE:
.LFB3233:
	pushq	%rbp
	.seh_pushreg	%rbp
	movq	%rsp, %rbp
	.seh_setframe	%rbp, 0
	subq	$32, %rsp
	.seh_stackalloc	32
	.seh_endprologue
	movq	%rcx, 16(%rbp)
	movq	16(%rbp), %rcx
	call	_ZNSt6chrono20__duration_cast_implINS_8durationIdSt5ratioILx1ELx1000EEEES2_ILx1ELx1000000EEdLb1ELb0EE6__castIxS2_ILx1ELx1000000000EEEES4_RKNS1_IT_T0_EE
	movq	%xmm0, %rax
	movq	%rax, %xmm0
	addq	$32, %rsp
	popq	%rbp
	ret
	.seh_endproc
	.section	.text$_ZNSt12_Vector_baseIiSaIiEE12_Vector_implC1ERKS0_,"x"
	.linkonce discard
	.align 2
	.globl	_ZNSt12_Vector_baseIiSaIiEE12_Vector_implC1ERKS0_
	.def	_ZNSt12_Vector_baseIiSaIiEE12_Vector_implC1ERKS0_;	.scl	2;	.type	32;	.endef
	.seh_proc	_ZNSt12_Vector_baseIiSaIiEE12_Vector_implC1ERKS0_
_ZNSt12_Vector_baseIiSaIiEE12_Vector_implC1ERKS0_:
.LFB3273:
	pushq	%rbp
	.seh_pushreg	%rbp
	movq	%rsp, %rbp
	.seh_setframe	%rbp, 0
	subq	$32, %rsp
	.seh_stackalloc	32
	.seh_endprologue
	movq	%rcx, 16(%rbp)
	movq	%rdx, 24(%rbp)
	movq	24(%rbp), %rax
	movq	%rax, %rdx
	movq	16(%rbp), %rcx
	call	_ZNSaIiEC2ERKS_
	movq	16(%rbp), %rax
	movq	$0, (%rax)
	movq	16(%rbp), %rax
	movq	$0, 8(%rax)
	movq	16(%rbp), %rax
	movq	$0, 16(%rax)
	nop
	addq	$32, %rsp
	popq	%rbp
	ret
	.seh_endproc
	.section	.text$_ZNSt12_Vector_baseIiSaIiEE13_M_deallocateEPiy,"x"
	.linkonce discard
	.align 2
	.globl	_ZNSt12_Vector_baseIiSaIiEE13_M_deallocateEPiy
	.def	_ZNSt12_Vector_baseIiSaIiEE13_M_deallocateEPiy;	.scl	2;	.type	32;	.endef
	.seh_proc	_ZNSt12_Vector_baseIiSaIiEE13_M_deallocateEPiy
_ZNSt12_Vector_baseIiSaIiEE13_M_deallocateEPiy:
.LFB3274:
	pushq	%rbp
	.seh_pushreg	%rbp
	movq	%rsp, %rbp
	.seh_setframe	%rbp, 0
	subq	$32, %rsp
	.seh_stackalloc	32
	.seh_endprologue
	movq	%rcx, 16(%rbp)
	movq	%rdx, 24(%rbp)
	movq	%r8, 32(%rbp)
	cmpq	$0, 24(%rbp)
	je	.L87
	movq	16(%rbp), %rax
	movq	32(%rbp), %rcx
	movq	24(%rbp), %rdx
	movq	%rcx, %r8
	movq	%rax, %rcx
	call	_ZNSt16allocator_traitsISaIiEE10deallocateERS0_Piy
.L87:
	nop
	addq	$32, %rsp
	popq	%rbp
	ret
	.seh_endproc
	.section	.text$_ZNKSt16initializer_listIiE4sizeEv,"x"
	.linkonce discard
	.align 2
	.globl	_ZNKSt16initializer_listIiE4sizeEv
	.def	_ZNKSt16initializer_listIiE4sizeEv;	.scl	2;	.type	32;	.endef
	.seh_proc	_ZNKSt16initializer_listIiE4sizeEv
_ZNKSt16initializer_listIiE4sizeEv:
.LFB3275:
	pushq	%rbp
	.seh_pushreg	%rbp
	movq	%rsp, %rbp
	.seh_setframe	%rbp, 0
	.seh_endprologue
	movq	%rcx, 16(%rbp)
	movq	16(%rbp), %rax
	movq	8(%rax), %rax
	popq	%rbp
	ret
	.seh_endproc
	.section	.text$_ZSt8distanceIPKiENSt15iterator_traitsIT_E15difference_typeES3_S3_,"x"
	.linkonce discard
	.globl	_ZSt8distanceIPKiENSt15iterator_traitsIT_E15difference_typeES3_S3_
	.def	_ZSt8distanceIPKiENSt15iterator_traitsIT_E15difference_typeES3_S3_;	.scl	2;	.type	32;	.endef
	.seh_proc	_ZSt8distanceIPKiENSt15iterator_traitsIT_E15difference_typeES3_S3_
_ZSt8distanceIPKiENSt15iterator_traitsIT_E15difference_typeES3_S3_:
.LFB3276:
	pushq	%rbp
	.seh_pushreg	%rbp
	pushq	%rbx
	.seh_pushreg	%rbx
	subq	$56, %rsp
	.seh_stackalloc	56
	leaq	128(%rsp), %rbp
	.seh_setframe	%rbp, 128
	.seh_endprologue
	movq	%rcx, -48(%rbp)
	movq	%rdx, -40(%rbp)
	leaq	-48(%rbp), %rcx
	call	_ZSt19__iterator_categoryIPKiENSt15iterator_traitsIT_E17iterator_categoryERKS3_
	movq	-48(%rbp), %rax
	movq	-40(%rbp), %rdx
	movl	%ebx, %r8d
	movq	%rax, %rcx
	call	_ZSt10__distanceIPKiENSt15iterator_traitsIT_E15difference_typeES3_S3_St26random_access_iterator_tag
	nop
	addq	$56, %rsp
	popq	%rbx
	popq	%rbp
	ret
	.seh_endproc
	.section	.text$_ZNSt12_Vector_baseIiSaIiEE11_M_allocateEy,"x"
	.linkonce discard
	.align 2
	.globl	_ZNSt12_Vector_baseIiSaIiEE11_M_allocateEy
	.def	_ZNSt12_Vector_baseIiSaIiEE11_M_allocateEy;	.scl	2;	.type	32;	.endef
	.seh_proc	_ZNSt12_Vector_baseIiSaIiEE11_M_allocateEy
_ZNSt12_Vector_baseIiSaIiEE11_M_allocateEy:
.LFB3277:
	pushq	%rbp
	.seh_pushreg	%rbp
	movq	%rsp, %rbp
	.seh_setframe	%rbp, 0
	subq	$32, %rsp
	.seh_stackalloc	32
	.seh_endprologue
	movq	%rcx, 16(%rbp)
	movq	%rdx, 24(%rbp)
	cmpq	$0, 24(%rbp)
	je	.L93
	movq	16(%rbp), %rax
	movq	24(%rbp), %rdx
	movq	%rax, %rcx
	call	_ZNSt16allocator_traitsISaIiEE8allocateERS0_y
	jmp	.L95
.L93:
	movl	$0, %eax
.L95:
	addq	$32, %rsp
	popq	%rbp
	ret
	.seh_endproc
	.section	.text$_ZSt22__uninitialized_copy_aIPKiPiiET0_T_S4_S3_RSaIT1_E,"x"
	.linkonce discard
	.globl	_ZSt22__uninitialized_copy_aIPKiPiiET0_T_S4_S3_RSaIT1_E
	.def	_ZSt22__uninitialized_copy_aIPKiPiiET0_T_S4_S3_RSaIT1_E;	.scl	2;	.type	32;	.endef
	.seh_proc	_ZSt22__uninitialized_copy_aIPKiPiiET0_T_S4_S3_RSaIT1_E
_ZSt22__uninitialized_copy_aIPKiPiiET0_T_S4_S3_RSaIT1_E:
.LFB3278:
	pushq	%rbp
	.seh_pushreg	%rbp
	movq	%rsp, %rbp
	.seh_setframe	%rbp, 0
	subq	$32, %rsp
	.seh_stackalloc	32
	.seh_endprologue
	movq	%rcx, 16(%rbp)
	movq	%rdx, 24(%rbp)
	movq	%r8, 32(%rbp)
	movq	%r9, 40(%rbp)
	movq	32(%rbp), %rdx
	movq	24(%rbp), %rax
	movq	%rdx, %r8
	movq	%rax, %rdx
	movq	16(%rbp), %rcx
	call	_ZSt18uninitialized_copyIPKiPiET0_T_S4_S3_
	addq	$32, %rsp
	popq	%rbp
	ret
	.seh_endproc
	.section	.text$_ZSt8_DestroyIPiEvT_S1_,"x"
	.linkonce discard
	.globl	_ZSt8_DestroyIPiEvT_S1_
	.def	_ZSt8_DestroyIPiEvT_S1_;	.scl	2;	.type	32;	.endef
	.seh_proc	_ZSt8_DestroyIPiEvT_S1_
_ZSt8_DestroyIPiEvT_S1_:
.LFB3279:
	pushq	%rbp
	.seh_pushreg	%rbp
	movq	%rsp, %rbp
	.seh_setframe	%rbp, 0
	subq	$32, %rsp
	.seh_stackalloc	32
	.seh_endprologue
	movq	%rcx, 16(%rbp)
	movq	%rdx, 24(%rbp)
	movq	24(%rbp), %rax
	movq	%rax, %rdx
	movq	16(%rbp), %rcx
	call	_ZNSt12_Destroy_auxILb1EE9__destroyIPiEEvT_S3_
	nop
	addq	$32, %rsp
	popq	%rbp
	ret
	.seh_endproc
	.section	.text$_ZN5__DotILi3EiE6resultEPiS1_,"x"
	.linkonce discard
	.globl	_ZN5__DotILi3EiE6resultEPiS1_
	.def	_ZN5__DotILi3EiE6resultEPiS1_;	.scl	2;	.type	32;	.endef
	.seh_proc	_ZN5__DotILi3EiE6resultEPiS1_
_ZN5__DotILi3EiE6resultEPiS1_:
.LFB3280:
	pushq	%rbp
	.seh_pushreg	%rbp
	pushq	%rbx
	.seh_pushreg	%rbx
	subq	$40, %rsp
	.seh_stackalloc	40
	leaq	128(%rsp), %rbp
	.seh_setframe	%rbp, 128
	.seh_endprologue
	movq	%rcx, -64(%rbp)
	movq	%rdx, -56(%rbp)
	movq	-64(%rbp), %rax
	movl	(%rax), %edx
	movq	-56(%rbp), %rax
	movl	(%rax), %eax
	movl	%edx, %ebx
	imull	%eax, %ebx
	movq	-56(%rbp), %rax
	leaq	4(%rax), %rdx
	movq	-64(%rbp), %rax
	addq	$4, %rax
	movq	%rax, %rcx
	call	_ZN5__DotILi2EiE6resultEPiS1_
	addl	%ebx, %eax
	addq	$40, %rsp
	popq	%rbx
	popq	%rbp
	ret
	.seh_endproc
	.section	.text$_ZNSt6chrono20__duration_cast_implINS_8durationIdSt5ratioILx1ELx1000EEEES2_ILx1ELx1000000EEdLb1ELb0EE6__castIxS2_ILx1ELx1000000000EEEES4_RKNS1_IT_T0_EE,"x"
	.linkonce discard
	.globl	_ZNSt6chrono20__duration_cast_implINS_8durationIdSt5ratioILx1ELx1000EEEES2_ILx1ELx1000000EEdLb1ELb0EE6__castIxS2_ILx1ELx1000000000EEEES4_RKNS1_IT_T0_EE
	.def	_ZNSt6chrono20__duration_cast_implINS_8durationIdSt5ratioILx1ELx1000EEEES2_ILx1ELx1000000EEdLb1ELb0EE6__castIxS2_ILx1ELx1000000000EEEES4_RKNS1_IT_T0_EE;	.scl	2;	.type	32;	.endef
	.seh_proc	_ZNSt6chrono20__duration_cast_implINS_8durationIdSt5ratioILx1ELx1000EEEES2_ILx1ELx1000000EEdLb1ELb0EE6__castIxS2_ILx1ELx1000000000EEEES4_RKNS1_IT_T0_EE
_ZNSt6chrono20__duration_cast_implINS_8durationIdSt5ratioILx1ELx1000EEEES2_ILx1ELx1000000EEdLb1ELb0EE6__castIxS2_ILx1ELx1000000000EEEES4_RKNS1_IT_T0_EE:
.LFB3282:
	pushq	%rbp
	.seh_pushreg	%rbp
	movq	%rsp, %rbp
	.seh_setframe	%rbp, 0
	subq	$48, %rsp
	.seh_stackalloc	48
	.seh_endprologue
	movq	%rcx, 16(%rbp)
	movq	16(%rbp), %rcx
	call	_ZNKSt6chrono8durationIxSt5ratioILx1ELx1000000000EEE5countEv
	cvtsi2sdq	%rax, %xmm0
	movsd	.LC9(%rip), %xmm1
	divsd	%xmm1, %xmm0
	movsd	%xmm0, -8(%rbp)
	leaq	-8(%rbp), %rdx
	leaq	-16(%rbp), %rax
	movq	%rax, %rcx
	call	_ZNSt6chrono8durationIdSt5ratioILx1ELx1000EEEC1IdvEERKT_
	movsd	-16(%rbp), %xmm0
	movq	%xmm0, %rax
	movq	%rax, %xmm0
	addq	$48, %rsp
	popq	%rbp
	ret
	.seh_endproc
	.section	.text$_ZNSaIiEC2ERKS_,"x"
	.linkonce discard
	.align 2
	.globl	_ZNSaIiEC2ERKS_
	.def	_ZNSaIiEC2ERKS_;	.scl	2;	.type	32;	.endef
	.seh_proc	_ZNSaIiEC2ERKS_
_ZNSaIiEC2ERKS_:
.LFB3319:
	pushq	%rbp
	.seh_pushreg	%rbp
	movq	%rsp, %rbp
	.seh_setframe	%rbp, 0
	subq	$32, %rsp
	.seh_stackalloc	32
	.seh_endprologue
	movq	%rcx, 16(%rbp)
	movq	%rdx, 24(%rbp)
	movq	24(%rbp), %rax
	movq	%rax, %rdx
	movq	16(%rbp), %rcx
	call	_ZN9__gnu_cxx13new_allocatorIiEC2ERKS1_
	nop
	addq	$32, %rsp
	popq	%rbp
	ret
	.seh_endproc
	.section	.text$_ZNSt16allocator_traitsISaIiEE10deallocateERS0_Piy,"x"
	.linkonce discard
	.globl	_ZNSt16allocator_traitsISaIiEE10deallocateERS0_Piy
	.def	_ZNSt16allocator_traitsISaIiEE10deallocateERS0_Piy;	.scl	2;	.type	32;	.endef
	.seh_proc	_ZNSt16allocator_traitsISaIiEE10deallocateERS0_Piy
_ZNSt16allocator_traitsISaIiEE10deallocateERS0_Piy:
.LFB3321:
	pushq	%rbp
	.seh_pushreg	%rbp
	movq	%rsp, %rbp
	.seh_setframe	%rbp, 0
	subq	$32, %rsp
	.seh_stackalloc	32
	.seh_endprologue
	movq	%rcx, 16(%rbp)
	movq	%rdx, 24(%rbp)
	movq	%r8, 32(%rbp)
	movq	32(%rbp), %rdx
	movq	24(%rbp), %rax
	movq	%rdx, %r8
	movq	%rax, %rdx
	movq	16(%rbp), %rcx
	call	_ZN9__gnu_cxx13new_allocatorIiE10deallocateEPiy
	nop
	addq	$32, %rsp
	popq	%rbp
	ret
	.seh_endproc
	.section	.text$_ZSt19__iterator_categoryIPKiENSt15iterator_traitsIT_E17iterator_categoryERKS3_,"x"
	.linkonce discard
	.globl	_ZSt19__iterator_categoryIPKiENSt15iterator_traitsIT_E17iterator_categoryERKS3_
	.def	_ZSt19__iterator_categoryIPKiENSt15iterator_traitsIT_E17iterator_categoryERKS3_;	.scl	2;	.type	32;	.endef
	.seh_proc	_ZSt19__iterator_categoryIPKiENSt15iterator_traitsIT_E17iterator_categoryERKS3_
_ZSt19__iterator_categoryIPKiENSt15iterator_traitsIT_E17iterator_categoryERKS3_:
.LFB3322:
	pushq	%rbp
	.seh_pushreg	%rbp
	movq	%rsp, %rbp
	.seh_setframe	%rbp, 0
	.seh_endprologue
	movq	%rcx, 16(%rbp)
	popq	%rbp
	ret
	.seh_endproc
	.section	.text$_ZSt10__distanceIPKiENSt15iterator_traitsIT_E15difference_typeES3_S3_St26random_access_iterator_tag,"x"
	.linkonce discard
	.globl	_ZSt10__distanceIPKiENSt15iterator_traitsIT_E15difference_typeES3_S3_St26random_access_iterator_tag
	.def	_ZSt10__distanceIPKiENSt15iterator_traitsIT_E15difference_typeES3_S3_St26random_access_iterator_tag;	.scl	2;	.type	32;	.endef
	.seh_proc	_ZSt10__distanceIPKiENSt15iterator_traitsIT_E15difference_typeES3_S3_St26random_access_iterator_tag
_ZSt10__distanceIPKiENSt15iterator_traitsIT_E15difference_typeES3_S3_St26random_access_iterator_tag:
.LFB3323:
	pushq	%rbp
	.seh_pushreg	%rbp
	movq	%rsp, %rbp
	.seh_setframe	%rbp, 0
	.seh_endprologue
	movq	%rcx, 16(%rbp)
	movq	%rdx, 24(%rbp)
	movb	%r8b, 32(%rbp)
	movq	24(%rbp), %rax
	subq	16(%rbp), %rax
	sarq	$2, %rax
	popq	%rbp
	ret
	.seh_endproc
	.section	.text$_ZNSt16allocator_traitsISaIiEE8allocateERS0_y,"x"
	.linkonce discard
	.globl	_ZNSt16allocator_traitsISaIiEE8allocateERS0_y
	.def	_ZNSt16allocator_traitsISaIiEE8allocateERS0_y;	.scl	2;	.type	32;	.endef
	.seh_proc	_ZNSt16allocator_traitsISaIiEE8allocateERS0_y
_ZNSt16allocator_traitsISaIiEE8allocateERS0_y:
.LFB3324:
	pushq	%rbp
	.seh_pushreg	%rbp
	movq	%rsp, %rbp
	.seh_setframe	%rbp, 0
	subq	$32, %rsp
	.seh_stackalloc	32
	.seh_endprologue
	movq	%rcx, 16(%rbp)
	movq	%rdx, 24(%rbp)
	movq	24(%rbp), %rax
	movl	$0, %r8d
	movq	%rax, %rdx
	movq	16(%rbp), %rcx
	call	_ZN9__gnu_cxx13new_allocatorIiE8allocateEyPKv
	addq	$32, %rsp
	popq	%rbp
	ret
	.seh_endproc
	.section	.text$_ZSt18uninitialized_copyIPKiPiET0_T_S4_S3_,"x"
	.linkonce discard
	.globl	_ZSt18uninitialized_copyIPKiPiET0_T_S4_S3_
	.def	_ZSt18uninitialized_copyIPKiPiET0_T_S4_S3_;	.scl	2;	.type	32;	.endef
	.seh_proc	_ZSt18uninitialized_copyIPKiPiET0_T_S4_S3_
_ZSt18uninitialized_copyIPKiPiET0_T_S4_S3_:
.LFB3325:
	pushq	%rbp
	.seh_pushreg	%rbp
	movq	%rsp, %rbp
	.seh_setframe	%rbp, 0
	subq	$48, %rsp
	.seh_stackalloc	48
	.seh_endprologue
	movq	%rcx, 16(%rbp)
	movq	%rdx, 24(%rbp)
	movq	%r8, 32(%rbp)
	movb	$1, -1(%rbp)
	movq	32(%rbp), %rdx
	movq	24(%rbp), %rax
	movq	%rdx, %r8
	movq	%rax, %rdx
	movq	16(%rbp), %rcx
	call	_ZNSt20__uninitialized_copyILb1EE13__uninit_copyIPKiPiEET0_T_S6_S5_
	addq	$48, %rsp
	popq	%rbp
	ret
	.seh_endproc
	.section	.text$_ZNSt12_Destroy_auxILb1EE9__destroyIPiEEvT_S3_,"x"
	.linkonce discard
	.globl	_ZNSt12_Destroy_auxILb1EE9__destroyIPiEEvT_S3_
	.def	_ZNSt12_Destroy_auxILb1EE9__destroyIPiEEvT_S3_;	.scl	2;	.type	32;	.endef
	.seh_proc	_ZNSt12_Destroy_auxILb1EE9__destroyIPiEEvT_S3_
_ZNSt12_Destroy_auxILb1EE9__destroyIPiEEvT_S3_:
.LFB3326:
	pushq	%rbp
	.seh_pushreg	%rbp
	movq	%rsp, %rbp
	.seh_setframe	%rbp, 0
	.seh_endprologue
	movq	%rcx, 16(%rbp)
	movq	%rdx, 24(%rbp)
	nop
	popq	%rbp
	ret
	.seh_endproc
	.section	.text$_ZN5__DotILi2EiE6resultEPiS1_,"x"
	.linkonce discard
	.globl	_ZN5__DotILi2EiE6resultEPiS1_
	.def	_ZN5__DotILi2EiE6resultEPiS1_;	.scl	2;	.type	32;	.endef
	.seh_proc	_ZN5__DotILi2EiE6resultEPiS1_
_ZN5__DotILi2EiE6resultEPiS1_:
.LFB3327:
	pushq	%rbp
	.seh_pushreg	%rbp
	pushq	%rbx
	.seh_pushreg	%rbx
	subq	$40, %rsp
	.seh_stackalloc	40
	leaq	128(%rsp), %rbp
	.seh_setframe	%rbp, 128
	.seh_endprologue
	movq	%rcx, -64(%rbp)
	movq	%rdx, -56(%rbp)
	movq	-64(%rbp), %rax
	movl	(%rax), %edx
	movq	-56(%rbp), %rax
	movl	(%rax), %eax
	movl	%edx, %ebx
	imull	%eax, %ebx
	movq	-56(%rbp), %rax
	leaq	4(%rax), %rdx
	movq	-64(%rbp), %rax
	addq	$4, %rax
	movq	%rax, %rcx
	call	_ZN5__DotILi1EiE6resultEPiS1_
	addl	%ebx, %eax
	addq	$40, %rsp
	popq	%rbx
	popq	%rbp
	ret
	.seh_endproc
	.section	.text$_ZNSt6chrono8durationIdSt5ratioILx1ELx1000EEEC1IdvEERKT_,"x"
	.linkonce discard
	.align 2
	.globl	_ZNSt6chrono8durationIdSt5ratioILx1ELx1000EEEC1IdvEERKT_
	.def	_ZNSt6chrono8durationIdSt5ratioILx1ELx1000EEEC1IdvEERKT_;	.scl	2;	.type	32;	.endef
	.seh_proc	_ZNSt6chrono8durationIdSt5ratioILx1ELx1000EEEC1IdvEERKT_
_ZNSt6chrono8durationIdSt5ratioILx1ELx1000EEEC1IdvEERKT_:
.LFB3330:
	pushq	%rbp
	.seh_pushreg	%rbp
	movq	%rsp, %rbp
	.seh_setframe	%rbp, 0
	.seh_endprologue
	movq	%rcx, 16(%rbp)
	movq	%rdx, 24(%rbp)
	movq	24(%rbp), %rax
	movsd	(%rax), %xmm0
	movq	16(%rbp), %rax
	movsd	%xmm0, (%rax)
	nop
	popq	%rbp
	ret
	.seh_endproc
	.section	.text$_ZN9__gnu_cxx13new_allocatorIiEC2ERKS1_,"x"
	.linkonce discard
	.align 2
	.globl	_ZN9__gnu_cxx13new_allocatorIiEC2ERKS1_
	.def	_ZN9__gnu_cxx13new_allocatorIiEC2ERKS1_;	.scl	2;	.type	32;	.endef
	.seh_proc	_ZN9__gnu_cxx13new_allocatorIiEC2ERKS1_
_ZN9__gnu_cxx13new_allocatorIiEC2ERKS1_:
.LFB3361:
	pushq	%rbp
	.seh_pushreg	%rbp
	movq	%rsp, %rbp
	.seh_setframe	%rbp, 0
	.seh_endprologue
	movq	%rcx, 16(%rbp)
	movq	%rdx, 24(%rbp)
	nop
	popq	%rbp
	ret
	.seh_endproc
	.section	.text$_ZN9__gnu_cxx13new_allocatorIiE10deallocateEPiy,"x"
	.linkonce discard
	.align 2
	.globl	_ZN9__gnu_cxx13new_allocatorIiE10deallocateEPiy
	.def	_ZN9__gnu_cxx13new_allocatorIiE10deallocateEPiy;	.scl	2;	.type	32;	.endef
	.seh_proc	_ZN9__gnu_cxx13new_allocatorIiE10deallocateEPiy
_ZN9__gnu_cxx13new_allocatorIiE10deallocateEPiy:
.LFB3363:
	pushq	%rbp
	.seh_pushreg	%rbp
	movq	%rsp, %rbp
	.seh_setframe	%rbp, 0
	subq	$32, %rsp
	.seh_stackalloc	32
	.seh_endprologue
	movq	%rcx, 16(%rbp)
	movq	%rdx, 24(%rbp)
	movq	%r8, 32(%rbp)
	movq	24(%rbp), %rax
	movq	%rax, %rcx
	call	_ZdlPv
	nop
	addq	$32, %rsp
	popq	%rbp
	ret
	.seh_endproc
	.section	.text$_ZN9__gnu_cxx13new_allocatorIiE8allocateEyPKv,"x"
	.linkonce discard
	.align 2
	.globl	_ZN9__gnu_cxx13new_allocatorIiE8allocateEyPKv
	.def	_ZN9__gnu_cxx13new_allocatorIiE8allocateEyPKv;	.scl	2;	.type	32;	.endef
	.seh_proc	_ZN9__gnu_cxx13new_allocatorIiE8allocateEyPKv
_ZN9__gnu_cxx13new_allocatorIiE8allocateEyPKv:
.LFB3364:
	pushq	%rbp
	.seh_pushreg	%rbp
	movq	%rsp, %rbp
	.seh_setframe	%rbp, 0
	subq	$32, %rsp
	.seh_stackalloc	32
	.seh_endprologue
	movq	%rcx, 16(%rbp)
	movq	%rdx, 24(%rbp)
	movq	%r8, 32(%rbp)
	movq	16(%rbp), %rcx
	call	_ZNK9__gnu_cxx13new_allocatorIiE8max_sizeEv
	cmpq	%rax, 24(%rbp)
	seta	%al
	testb	%al, %al
	je	.L120
	call	_ZSt17__throw_bad_allocv
.L120:
	movq	24(%rbp), %rax
	salq	$2, %rax
	movq	%rax, %rcx
	call	_Znwy
	addq	$32, %rsp
	popq	%rbp
	ret
	.seh_endproc
	.section	.text$_ZNSt20__uninitialized_copyILb1EE13__uninit_copyIPKiPiEET0_T_S6_S5_,"x"
	.linkonce discard
	.globl	_ZNSt20__uninitialized_copyILb1EE13__uninit_copyIPKiPiEET0_T_S6_S5_
	.def	_ZNSt20__uninitialized_copyILb1EE13__uninit_copyIPKiPiEET0_T_S6_S5_;	.scl	2;	.type	32;	.endef
	.seh_proc	_ZNSt20__uninitialized_copyILb1EE13__uninit_copyIPKiPiEET0_T_S6_S5_
_ZNSt20__uninitialized_copyILb1EE13__uninit_copyIPKiPiEET0_T_S6_S5_:
.LFB3365:
	pushq	%rbp
	.seh_pushreg	%rbp
	movq	%rsp, %rbp
	.seh_setframe	%rbp, 0
	subq	$32, %rsp
	.seh_stackalloc	32
	.seh_endprologue
	movq	%rcx, 16(%rbp)
	movq	%rdx, 24(%rbp)
	movq	%r8, 32(%rbp)
	movq	32(%rbp), %rdx
	movq	24(%rbp), %rax
	movq	%rdx, %r8
	movq	%rax, %rdx
	movq	16(%rbp), %rcx
	call	_ZSt4copyIPKiPiET0_T_S4_S3_
	addq	$32, %rsp
	popq	%rbp
	ret
	.seh_endproc
	.section	.text$_ZN5__DotILi1EiE6resultEPiS1_,"x"
	.linkonce discard
	.globl	_ZN5__DotILi1EiE6resultEPiS1_
	.def	_ZN5__DotILi1EiE6resultEPiS1_;	.scl	2;	.type	32;	.endef
	.seh_proc	_ZN5__DotILi1EiE6resultEPiS1_
_ZN5__DotILi1EiE6resultEPiS1_:
.LFB3366:
	pushq	%rbp
	.seh_pushreg	%rbp
	movq	%rsp, %rbp
	.seh_setframe	%rbp, 0
	.seh_endprologue
	movq	%rcx, 16(%rbp)
	movq	%rdx, 24(%rbp)
	movq	16(%rbp), %rax
	movl	(%rax), %edx
	movq	24(%rbp), %rax
	movl	(%rax), %eax
	imull	%edx, %eax
	popq	%rbp
	ret
	.seh_endproc
	.section	.text$_ZNK9__gnu_cxx13new_allocatorIiE8max_sizeEv,"x"
	.linkonce discard
	.align 2
	.globl	_ZNK9__gnu_cxx13new_allocatorIiE8max_sizeEv
	.def	_ZNK9__gnu_cxx13new_allocatorIiE8max_sizeEv;	.scl	2;	.type	32;	.endef
	.seh_proc	_ZNK9__gnu_cxx13new_allocatorIiE8max_sizeEv
_ZNK9__gnu_cxx13new_allocatorIiE8max_sizeEv:
.LFB3394:
	pushq	%rbp
	.seh_pushreg	%rbp
	movq	%rsp, %rbp
	.seh_setframe	%rbp, 0
	.seh_endprologue
	movq	%rcx, 16(%rbp)
	movabsq	$4611686018427387903, %rax
	popq	%rbp
	ret
	.seh_endproc
	.section	.text$_ZSt4copyIPKiPiET0_T_S4_S3_,"x"
	.linkonce discard
	.globl	_ZSt4copyIPKiPiET0_T_S4_S3_
	.def	_ZSt4copyIPKiPiET0_T_S4_S3_;	.scl	2;	.type	32;	.endef
	.seh_proc	_ZSt4copyIPKiPiET0_T_S4_S3_
_ZSt4copyIPKiPiET0_T_S4_S3_:
.LFB3395:
	pushq	%rbp
	.seh_pushreg	%rbp
	pushq	%rbx
	.seh_pushreg	%rbx
	subq	$40, %rsp
	.seh_stackalloc	40
	leaq	128(%rsp), %rbp
	.seh_setframe	%rbp, 128
	.seh_endprologue
	movq	%rcx, -64(%rbp)
	movq	%rdx, -56(%rbp)
	movq	%r8, -48(%rbp)
	movq	-56(%rbp), %rax
	movq	%rax, %rcx
	call	_ZSt12__miter_baseIPKiET_S2_
	movq	%rax, %rbx
	movq	-64(%rbp), %rcx
	call	_ZSt12__miter_baseIPKiET_S2_
	movq	%rax, %rcx
	movq	-48(%rbp), %rax
	movq	%rax, %r8
	movq	%rbx, %rdx
	call	_ZSt14__copy_move_a2ILb0EPKiPiET1_T0_S4_S3_
	addq	$40, %rsp
	popq	%rbx
	popq	%rbp
	ret
	.seh_endproc
	.section	.text$_ZSt12__miter_baseIPKiET_S2_,"x"
	.linkonce discard
	.globl	_ZSt12__miter_baseIPKiET_S2_
	.def	_ZSt12__miter_baseIPKiET_S2_;	.scl	2;	.type	32;	.endef
	.seh_proc	_ZSt12__miter_baseIPKiET_S2_
_ZSt12__miter_baseIPKiET_S2_:
.LFB3406:
	pushq	%rbp
	.seh_pushreg	%rbp
	movq	%rsp, %rbp
	.seh_setframe	%rbp, 0
	.seh_endprologue
	movq	%rcx, 16(%rbp)
	movq	16(%rbp), %rax
	popq	%rbp
	ret
	.seh_endproc
	.section	.text$_ZSt14__copy_move_a2ILb0EPKiPiET1_T0_S4_S3_,"x"
	.linkonce discard
	.globl	_ZSt14__copy_move_a2ILb0EPKiPiET1_T0_S4_S3_
	.def	_ZSt14__copy_move_a2ILb0EPKiPiET1_T0_S4_S3_;	.scl	2;	.type	32;	.endef
	.seh_proc	_ZSt14__copy_move_a2ILb0EPKiPiET1_T0_S4_S3_
_ZSt14__copy_move_a2ILb0EPKiPiET1_T0_S4_S3_:
.LFB3407:
	pushq	%rbp
	.seh_pushreg	%rbp
	pushq	%rsi
	.seh_pushreg	%rsi
	pushq	%rbx
	.seh_pushreg	%rbx
	movq	%rsp, %rbp
	.seh_setframe	%rbp, 0
	subq	$32, %rsp
	.seh_stackalloc	32
	.seh_endprologue
	movq	%rcx, 32(%rbp)
	movq	%rdx, 40(%rbp)
	movq	%r8, 48(%rbp)
	movq	48(%rbp), %rax
	movq	%rax, %rcx
	call	_ZSt12__niter_baseIPiET_S1_
	movq	%rax, %rsi
	movq	40(%rbp), %rax
	movq	%rax, %rcx
	call	_ZSt12__niter_baseIPKiET_S2_
	movq	%rax, %rbx
	movq	32(%rbp), %rcx
	call	_ZSt12__niter_baseIPKiET_S2_
	movq	%rsi, %r8
	movq	%rbx, %rdx
	movq	%rax, %rcx
	call	_ZSt13__copy_move_aILb0EPKiPiET1_T0_S4_S3_
	addq	$32, %rsp
	popq	%rbx
	popq	%rsi
	popq	%rbp
	ret
	.seh_endproc
	.section	.text$_ZSt12__niter_baseIPKiET_S2_,"x"
	.linkonce discard
	.globl	_ZSt12__niter_baseIPKiET_S2_
	.def	_ZSt12__niter_baseIPKiET_S2_;	.scl	2;	.type	32;	.endef
	.seh_proc	_ZSt12__niter_baseIPKiET_S2_
_ZSt12__niter_baseIPKiET_S2_:
.LFB3410:
	pushq	%rbp
	.seh_pushreg	%rbp
	movq	%rsp, %rbp
	.seh_setframe	%rbp, 0
	.seh_endprologue
	movq	%rcx, 16(%rbp)
	movq	16(%rbp), %rax
	popq	%rbp
	ret
	.seh_endproc
	.section	.text$_ZSt12__niter_baseIPiET_S1_,"x"
	.linkonce discard
	.globl	_ZSt12__niter_baseIPiET_S1_
	.def	_ZSt12__niter_baseIPiET_S1_;	.scl	2;	.type	32;	.endef
	.seh_proc	_ZSt12__niter_baseIPiET_S1_
_ZSt12__niter_baseIPiET_S1_:
.LFB3411:
	pushq	%rbp
	.seh_pushreg	%rbp
	movq	%rsp, %rbp
	.seh_setframe	%rbp, 0
	.seh_endprologue
	movq	%rcx, 16(%rbp)
	movq	16(%rbp), %rax
	popq	%rbp
	ret
	.seh_endproc
	.section	.text$_ZSt13__copy_move_aILb0EPKiPiET1_T0_S4_S3_,"x"
	.linkonce discard
	.globl	_ZSt13__copy_move_aILb0EPKiPiET1_T0_S4_S3_
	.def	_ZSt13__copy_move_aILb0EPKiPiET1_T0_S4_S3_;	.scl	2;	.type	32;	.endef
	.seh_proc	_ZSt13__copy_move_aILb0EPKiPiET1_T0_S4_S3_
_ZSt13__copy_move_aILb0EPKiPiET1_T0_S4_S3_:
.LFB3412:
	pushq	%rbp
	.seh_pushreg	%rbp
	movq	%rsp, %rbp
	.seh_setframe	%rbp, 0
	subq	$48, %rsp
	.seh_stackalloc	48
	.seh_endprologue
	movq	%rcx, 16(%rbp)
	movq	%rdx, 24(%rbp)
	movq	%r8, 32(%rbp)
	movb	$1, -1(%rbp)
	movq	32(%rbp), %rdx
	movq	24(%rbp), %rax
	movq	%rdx, %r8
	movq	%rax, %rdx
	movq	16(%rbp), %rcx
	call	_ZNSt11__copy_moveILb0ELb1ESt26random_access_iterator_tagE8__copy_mIiEEPT_PKS3_S6_S4_
	addq	$48, %rsp
	popq	%rbp
	ret
	.seh_endproc
	.section	.text$_ZNSt11__copy_moveILb0ELb1ESt26random_access_iterator_tagE8__copy_mIiEEPT_PKS3_S6_S4_,"x"
	.linkonce discard
	.globl	_ZNSt11__copy_moveILb0ELb1ESt26random_access_iterator_tagE8__copy_mIiEEPT_PKS3_S6_S4_
	.def	_ZNSt11__copy_moveILb0ELb1ESt26random_access_iterator_tagE8__copy_mIiEEPT_PKS3_S6_S4_;	.scl	2;	.type	32;	.endef
	.seh_proc	_ZNSt11__copy_moveILb0ELb1ESt26random_access_iterator_tagE8__copy_mIiEEPT_PKS3_S6_S4_
_ZNSt11__copy_moveILb0ELb1ESt26random_access_iterator_tagE8__copy_mIiEEPT_PKS3_S6_S4_:
.LFB3413:
	pushq	%rbp
	.seh_pushreg	%rbp
	movq	%rsp, %rbp
	.seh_setframe	%rbp, 0
	subq	$48, %rsp
	.seh_stackalloc	48
	.seh_endprologue
	movq	%rcx, 16(%rbp)
	movq	%rdx, 24(%rbp)
	movq	%r8, 32(%rbp)
	movq	24(%rbp), %rax
	subq	16(%rbp), %rax
	sarq	$2, %rax
	movq	%rax, -8(%rbp)
	cmpq	$0, -8(%rbp)
	je	.L141
	movq	-8(%rbp), %rax
	leaq	0(,%rax,4), %rdx
	movq	32(%rbp), %rax
	movq	%rdx, %r8
	movq	16(%rbp), %rdx
	movq	%rax, %rcx
	call	memmove
.L141:
	movq	-8(%rbp), %rax
	leaq	0(,%rax,4), %rdx
	movq	32(%rbp), %rax
	addq	%rdx, %rax
	addq	$48, %rsp
	popq	%rbp
	ret
	.seh_endproc
	.text
	.def	__tcf_0;	.scl	3;	.type	32;	.endef
	.seh_proc	__tcf_0
__tcf_0:
.LFB3415:
	pushq	%rbp
	.seh_pushreg	%rbp
	movq	%rsp, %rbp
	.seh_setframe	%rbp, 0
	subq	$32, %rsp
	.seh_stackalloc	32
	.seh_endprologue
	leaq	_ZStL8__ioinit(%rip), %rcx
	call	_ZNSt8ios_base4InitD1Ev
	nop
	addq	$32, %rsp
	popq	%rbp
	ret
	.seh_endproc
	.def	__tcf_1;	.scl	3;	.type	32;	.endef
	.seh_proc	__tcf_1
__tcf_1:
.LFB3416:
	pushq	%rbp
	.seh_pushreg	%rbp
	movq	%rsp, %rbp
	.seh_setframe	%rbp, 0
	subq	$32, %rsp
	.seh_stackalloc	32
	.seh_endprologue
	leaq	a(%rip), %rcx
	call	_ZNSt6vectorIiSaIiEED1Ev
	nop
	addq	$32, %rsp
	popq	%rbp
	ret
	.seh_endproc
	.def	__tcf_2;	.scl	3;	.type	32;	.endef
	.seh_proc	__tcf_2
__tcf_2:
.LFB3417:
	pushq	%rbp
	.seh_pushreg	%rbp
	movq	%rsp, %rbp
	.seh_setframe	%rbp, 0
	subq	$32, %rsp
	.seh_stackalloc	32
	.seh_endprologue
	leaq	b(%rip), %rcx
	call	_ZNSt6vectorIiSaIiEED1Ev
	nop
	addq	$32, %rsp
	popq	%rbp
	ret
	.seh_endproc
	.def	_Z41__static_initialization_and_destruction_0ii;	.scl	3;	.type	32;	.endef
	.seh_proc	_Z41__static_initialization_and_destruction_0ii
_Z41__static_initialization_and_destruction_0ii:
.LFB3414:
	pushq	%rbp
	.seh_pushreg	%rbp
	pushq	%r13
	.seh_pushreg	%r13
	pushq	%r12
	.seh_pushreg	%r12
	pushq	%rsi
	.seh_pushreg	%rsi
	pushq	%rbx
	.seh_pushreg	%rbx
	movq	%rsp, %rbp
	.seh_setframe	%rbp, 0
	subq	$112, %rsp
	.seh_stackalloc	112
	.seh_endprologue
	movl	%ecx, 48(%rbp)
	movl	%edx, 56(%rbp)
	cmpl	$1, 48(%rbp)
	jne	.L146
	cmpl	$65535, 56(%rbp)
	jne	.L146
	leaq	_ZStL8__ioinit(%rip), %rcx
.LEHB2:
	call	_ZNSt8ios_base4InitC1Ev
.LEHE2:
	leaq	__tcf_0(%rip), %rcx
	call	atexit
	movl	$1, -64(%rbp)
	movl	$2, -60(%rbp)
	movl	$3, -56(%rbp)
	movl	$4, -52(%rbp)
	leaq	-64(%rbp), %rax
	movq	%rax, %r12
	movl	$4, %r13d
	leaq	-33(%rbp), %rax
	movq	%rax, %rcx
	call	_ZNSaIiEC1Ev
	movq	%r12, -80(%rbp)
	movq	%r13, -72(%rbp)
	leaq	-33(%rbp), %rdx
	leaq	-80(%rbp), %rax
	movq	%rdx, %r8
	movq	%rax, %rdx
	leaq	a(%rip), %rcx
.LEHB3:
	call	_ZNSt6vectorIiSaIiEEC1ESt16initializer_listIiERKS0_
.LEHE3:
	leaq	-33(%rbp), %rax
	movq	%rax, %rcx
	call	_ZNSaIiED1Ev
	leaq	__tcf_1(%rip), %rcx
	call	atexit
	movl	$5, -32(%rbp)
	movl	$6, -28(%rbp)
	movl	$7, -24(%rbp)
	movl	$8, -20(%rbp)
	leaq	-32(%rbp), %rax
	movq	%rax, %rbx
	movl	$4, %esi
	leaq	-1(%rbp), %rax
	movq	%rax, %rcx
	call	_ZNSaIiEC1Ev
	movq	%rbx, -80(%rbp)
	movq	%rsi, -72(%rbp)
	leaq	-1(%rbp), %rdx
	leaq	-80(%rbp), %rax
	movq	%rdx, %r8
	movq	%rax, %rdx
	leaq	b(%rip), %rcx
.LEHB4:
	call	_ZNSt6vectorIiSaIiEEC1ESt16initializer_listIiERKS0_
.LEHE4:
	leaq	-1(%rbp), %rax
	movq	%rax, %rcx
	call	_ZNSaIiED1Ev
	leaq	__tcf_2(%rip), %rcx
	call	atexit
	jmp	.L146
.L150:
	movq	%rax, %rbx
	leaq	-33(%rbp), %rax
	movq	%rax, %rcx
	call	_ZNSaIiED1Ev
	movq	%rbx, %rax
	movq	%rax, %rcx
.LEHB5:
	call	_Unwind_Resume
.L151:
	movq	%rax, %rbx
	leaq	-1(%rbp), %rax
	movq	%rax, %rcx
	call	_ZNSaIiED1Ev
	movq	%rbx, %rax
	movq	%rax, %rcx
	call	_Unwind_Resume
	nop
.LEHE5:
.L146:
	addq	$112, %rsp
	popq	%rbx
	popq	%rsi
	popq	%r12
	popq	%r13
	popq	%rbp
	ret
	.seh_handler	__gxx_personality_seh0, @unwind, @except
	.seh_handlerdata
.LLSDA3414:
	.byte	0xff
	.byte	0xff
	.byte	0x1
	.uleb128 .LLSDACSE3414-.LLSDACSB3414
.LLSDACSB3414:
	.uleb128 .LEHB2-.LFB3414
	.uleb128 .LEHE2-.LEHB2
	.uleb128 0
	.uleb128 0
	.uleb128 .LEHB3-.LFB3414
	.uleb128 .LEHE3-.LEHB3
	.uleb128 .L150-.LFB3414
	.uleb128 0
	.uleb128 .LEHB4-.LFB3414
	.uleb128 .LEHE4-.LEHB4
	.uleb128 .L151-.LFB3414
	.uleb128 0
	.uleb128 .LEHB5-.LFB3414
	.uleb128 .LEHE5-.LEHB5
	.uleb128 0
	.uleb128 0
.LLSDACSE3414:
	.text
	.seh_endproc
	.def	_GLOBAL__sub_I_a;	.scl	3;	.type	32;	.endef
	.seh_proc	_GLOBAL__sub_I_a
_GLOBAL__sub_I_a:
.LFB3418:
	pushq	%rbp
	.seh_pushreg	%rbp
	movq	%rsp, %rbp
	.seh_setframe	%rbp, 0
	subq	$32, %rsp
	.seh_stackalloc	32
	.seh_endprologue
	movl	$65535, %edx
	movl	$1, %ecx
	call	_Z41__static_initialization_and_destruction_0ii
	nop
	addq	$32, %rsp
	popq	%rbp
	ret
	.seh_endproc
	.section	.ctors,"w"
	.align 8
	.quad	_GLOBAL__sub_I_a
	.section .rdata,"dr"
	.align 8
.LC9:
	.long	0
	.long	1093567616
	.ident	"GCC: (x86_64-posix-seh-rev0, Built by MinGW-W64 project) 8.1.0"
	.def	_ZNSt6chrono3_V212system_clock3nowEv;	.scl	2;	.type	32;	.endef
	.def	_ZNSolsEPFRSt8ios_baseS0_E;	.scl	2;	.type	32;	.endef
	.def	_ZStlsIcSt11char_traitsIcEERSt13basic_ostreamIT_T0_ES6_St13_Setprecision;	.scl	2;	.type	32;	.endef
	.def	_ZStlsISt11char_traitsIcEERSt13basic_ostreamIcT_ES5_PKc;	.scl	2;	.type	32;	.endef
	.def	_ZNSolsEi;	.scl	2;	.type	32;	.endef
	.def	_ZNSolsEd;	.scl	2;	.type	32;	.endef
	.def	_ZNSolsEPFRSoS_E;	.scl	2;	.type	32;	.endef
	.def	_Unwind_Resume;	.scl	2;	.type	32;	.endef
	.def	_ZdlPv;	.scl	2;	.type	32;	.endef
	.def	_ZSt17__throw_bad_allocv;	.scl	2;	.type	32;	.endef
	.def	_Znwy;	.scl	2;	.type	32;	.endef
	.def	memmove;	.scl	2;	.type	32;	.endef
	.def	_ZNSt8ios_base4InitD1Ev;	.scl	2;	.type	32;	.endef
	.def	_ZNSt8ios_base4InitC1Ev;	.scl	2;	.type	32;	.endef
	.def	atexit;	.scl	2;	.type	32;	.endef
	.section	.rdata$.refptr._ZSt4endlIcSt11char_traitsIcEERSt13basic_ostreamIT_T0_ES6_, "dr"
	.globl	.refptr._ZSt4endlIcSt11char_traitsIcEERSt13basic_ostreamIT_T0_ES6_
	.linkonce	discard
.refptr._ZSt4endlIcSt11char_traitsIcEERSt13basic_ostreamIT_T0_ES6_:
	.quad	_ZSt4endlIcSt11char_traitsIcEERSt13basic_ostreamIT_T0_ES6_
	.section	.rdata$.refptr._ZSt4cout, "dr"
	.globl	.refptr._ZSt4cout
	.linkonce	discard
.refptr._ZSt4cout:
	.quad	_ZSt4cout
